	.arch armv7-a
	.eabi_attribute 28, 1
	.eabi_attribute 20, 1
	.eabi_attribute 21, 1
	.eabi_attribute 23, 3
	.eabi_attribute 24, 1
	.eabi_attribute 25, 1
	.eabi_attribute 26, 2
	.eabi_attribute 30, 1
	.eabi_attribute 34, 1
	.eabi_attribute 18, 4
	.file	"synth.c"
	.text
.Ltext0:
	.cfi_sections	.debug_frame
	.align	1
	.syntax unified
	.thumb
	.thumb_func
	.fpu vfpv3-d16
	.type	dct32, %function
dct32:
.LFB2:
	.file 1 "synth.c"
	.loc 1 125 0
	.cfi_startproc
	@ args = 0, pretend = 0, frame = 200
	@ frame_needed = 0, uses_anonymous_args = 0
.LVL0:
	push	{r4, r5, r6, r7, r8, r9, r10, fp, lr}
	.cfi_def_cfa_offset 36
	.cfi_offset 4, -36
	.cfi_offset 5, -32
	.cfi_offset 6, -28
	.cfi_offset 7, -24
	.cfi_offset 8, -20
	.cfi_offset 9, -16
	.cfi_offset 10, -12
	.cfi_offset 11, -8
	.cfi_offset 14, -4
	sub	sp, sp, #204
	.cfi_def_cfa_offset 240
	.loc 1 218 0
	ldr	r5, [r0, #124]
	.loc 1 125 0
	str	r3, [sp, #56]
	.loc 1 218 0
	ldr	r3, [r0]
.LVL1:
	.loc 1 125 0
	str	r1, [sp]
	str	r2, [sp, #124]
	.loc 1 218 0
	adds	r4, r3, r5
.LVL2:
.LBB2:
	subs	r3, r3, r5
	movw	r5, #4338
	movt	r5, 4091
	.syntax unified
@ 218 "synth.c" 1
	smull	r2, r1, r3, r5
	movs	r2, r2, lsr #28
	adc	r5, r2, r1, lsl #4
@ 0 "" 2
.LVL3:
	.thumb
	.syntax unified
.LBE2:
	.loc 1 219 0
	ldr	r1, [r0, #64]
	ldr	r3, [r0, #60]
	adds	r2, r3, r1
.LVL4:
.LBB3:
	subs	r3, r3, r1
	movw	r1, #64304
	movt	r1, 200
	.syntax unified
@ 219 "synth.c" 1
	smull	r6, r7, r3, r1
	movs	r6, r6, lsr #28
	adc	r3, r6, r7, lsl #4
@ 0 "" 2
.LVL5:
	.thumb
	.syntax unified
.LBE3:
.LBB4:
	.loc 1 222 0
	movw	r1, #18130
.LBE4:
	.loc 1 221 0
	adds	r6, r5, r3
	str	r6, [sp, #20]
.LVL6:
.LBB5:
	.loc 1 222 0
	movt	r1, 4076
	subs	r3, r5, r3
.LVL7:
	.syntax unified
@ 222 "synth.c" 1
	smull	r5, r6, r3, r1
	movs	r5, r5, lsr #28
	adc	r7, r5, r6, lsl #4
@ 0 "" 2
.LVL8:
	.thumb
	.syntax unified
.LBE5:
	.loc 1 226 0
	ldr	r5, [r0, #28]
.LBB6:
	.loc 1 222 0
	str	r7, [sp, #48]
.LVL9:
.LBE6:
	.loc 1 223 0
	adds	r7, r4, r2
.LBB7:
	.loc 1 224 0
	subs	r4, r4, r2
.LVL10:
.LBE7:
	.loc 1 223 0
	str	r7, [sp, #4]
.LVL11:
.LBB8:
	.loc 1 224 0
	.syntax unified
@ 224 "synth.c" 1
	smull	r3, r2, r4, r1
	movs	r3, r3, lsr #28
	adc	ip, r3, r2, lsl #4
@ 0 "" 2
.LVL12:
	.thumb
	.syntax unified
.LBE8:
	.loc 1 226 0
	ldr	r4, [r0, #96]
.LBB9:
	.loc 1 224 0
	str	ip, [sp, #52]
.LVL13:
.LBE9:
	.loc 1 226 0
	adds	r3, r5, r4
.LVL14:
.LBB10:
	subs	r5, r5, r4
	movw	r4, #61329
	movt	r4, 3034
	.syntax unified
@ 226 "synth.c" 1
	smull	r2, r1, r5, r4
	movs	r2, r2, lsr #28
	adc	r4, r2, r1, lsl #4
@ 0 "" 2
.LVL15:
	.thumb
	.syntax unified
.LBE10:
	.loc 1 227 0
	ldr	r5, [r0, #32]
	ldr	r1, [r0, #92]
	adds	r2, r5, r1
.LVL16:
.LBB11:
	subs	r1, r5, r1
	movw	r5, #46234
	movt	r5, 2750
	.syntax unified
@ 227 "synth.c" 1
	smull	r6, r7, r1, r5
	movs	r6, r6, lsr #28
	adc	r5, r6, r7, lsl #4
@ 0 "" 2
.LVL17:
	.thumb
	.syntax unified
.LBE11:
	.loc 1 229 0
	adds	r7, r4, r5
.LBB12:
	.loc 1 230 0
	subs	r5, r4, r5
.LVL18:
	movw	r4, #31340
.LVL19:
.LBE12:
	.loc 1 229 0
	str	r7, [sp, #24]
.LVL20:
.LBB13:
	.loc 1 230 0
	movt	r4, 401
.LBE13:
	.loc 1 231 0
	adds	r7, r3, r2
.LBB14:
	.loc 1 230 0
	.syntax unified
@ 230 "synth.c" 1
	smull	r1, r6, r5, r4
	movs	r1, r1, lsr #28
	adc	ip, r1, r6, lsl #4
@ 0 "" 2
	.thumb
	.syntax unified
.LBE14:
.LBB15:
	.loc 1 232 0
	subs	r3, r3, r2
.LVL21:
.LBE15:
.LBB16:
	.loc 1 230 0
	str	ip, [sp, #108]
.LVL22:
.LBE16:
	.loc 1 234 0
	ldr	r2, [r0, #112]
.LVL23:
.LBB17:
	.loc 1 232 0
	.syntax unified
@ 232 "synth.c" 1
	smull	r1, r5, r3, r4
	movs	r1, r1, lsr #28
	adc	ip, r1, r5, lsl #4
@ 0 "" 2
	.thumb
	.syntax unified
.LBE17:
	.loc 1 234 0
	ldr	r1, [r0, #12]
.LBB18:
	movw	r5, #36994
	movt	r5, 3856
.LBE18:
	.loc 1 231 0
	str	r7, [sp, #16]
.LVL24:
.LBB19:
	.loc 1 232 0
	str	ip, [sp, #92]
.LVL25:
.LBE19:
	.loc 1 234 0
	adds	r3, r1, r2
.LVL26:
.LBB20:
	subs	r1, r1, r2
	.syntax unified
@ 234 "synth.c" 1
	smull	r2, r4, r1, r5
	movs	r2, r2, lsr #28
	adc	r5, r2, r4, lsl #4
@ 0 "" 2
.LVL27:
	.thumb
	.syntax unified
.LBE20:
	.loc 1 235 0
	ldr	r1, [r0, #76]
	ldr	r4, [r0, #48]
	adds	r2, r4, r1
.LVL28:
.LBB21:
	subs	r4, r4, r1
	movw	r1, #59037
	movt	r1, 1379
	.syntax unified
@ 235 "synth.c" 1
	smull	r6, r7, r4, r1
	movs	r6, r6, lsr #28
	adc	r1, r6, r7, lsl #4
@ 0 "" 2
.LVL29:
	.thumb
	.syntax unified
.LBE21:
.LBB22:
	.loc 1 238 0
	movw	r4, #16438
.LBE22:
	.loc 1 237 0
	adds	r7, r5, r1
.LBB23:
	.loc 1 238 0
	movt	r4, 3166
	subs	r1, r5, r1
.LVL30:
	.syntax unified
@ 238 "synth.c" 1
	smull	r5, r6, r1, r4
	movs	r5, r5, lsr #28
	adc	ip, r5, r6, lsl #4
@ 0 "" 2
.LVL31:
	.thumb
	.syntax unified
.LBE23:
	.loc 1 239 0
	adds	r5, r3, r2
.LBB24:
	.loc 1 238 0
	str	ip, [sp, #112]
.LVL32:
.LBE24:
	.loc 1 239 0
	str	r5, [sp, #8]
.LVL33:
.LBB25:
	.loc 1 240 0
	subs	r3, r3, r2
.LVL34:
.LBE25:
	.loc 1 242 0
	ldr	r2, [r0, #108]
.LVL35:
.LBB26:
	.loc 1 240 0
	.syntax unified
@ 240 "synth.c" 1
	smull	r1, r5, r3, r4
	movs	r1, r1, lsr #28
	adc	ip, r1, r5, lsl #4
@ 0 "" 2
	.thumb
	.syntax unified
.LBE26:
	.loc 1 242 0
	ldr	r1, [r0, #16]
.LBB27:
	movw	r5, #48506
	movt	r5, 3702
.LBE27:
	.loc 1 237 0
	str	r7, [sp, #28]
.LVL36:
.LBB28:
	.loc 1 240 0
	str	ip, [sp, #96]
.LVL37:
.LBE28:
	.loc 1 242 0
	adds	r3, r1, r2
.LVL38:
.LBB29:
	subs	r1, r1, r2
	.syntax unified
@ 242 "synth.c" 1
	smull	r2, r4, r1, r5
	movs	r2, r2, lsr #28
	adc	r5, r2, r4, lsl #4
@ 0 "" 2
.LVL39:
	.thumb
	.syntax unified
.LBE29:
	.loc 1 243 0
	ldr	r1, [r0, #80]
	ldr	r4, [r0, #44]
	adds	r2, r4, r1
.LVL40:
.LBB30:
	subs	r4, r4, r1
	movw	r1, #17410
.LBE30:
	.loc 1 247 0
	add	fp, r3, r2
.LBB31:
	.loc 1 243 0
	movt	r1, 1751
.LBE31:
.LBB32:
	.loc 1 248 0
	subs	r3, r3, r2
.LVL41:
.LBE32:
.LBB33:
	.loc 1 243 0
	.syntax unified
@ 243 "synth.c" 1
	smull	r6, r7, r4, r1
	movs	r6, r6, lsr #28
	adc	r1, r6, r7, lsl #4
@ 0 "" 2
.LVL42:
	.thumb
	.syntax unified
.LBE33:
.LBB34:
	.loc 1 246 0
	movw	r4, #31123
.LBE34:
	.loc 1 245 0
	adds	r7, r5, r1
	str	r7, [sp, #32]
.LVL43:
.LBB35:
	.loc 1 246 0
	movt	r4, 2598
.LBE35:
	.loc 1 250 0
	ldr	r2, [r0, #120]
.LVL44:
.LBB36:
	.loc 1 246 0
	subs	r1, r5, r1
.LVL45:
	.syntax unified
@ 246 "synth.c" 1
	smull	r5, r6, r1, r4
	movs	r5, r5, lsr #28
	adc	ip, r5, r6, lsl #4
@ 0 "" 2
.LVL46:
	.thumb
	.syntax unified
	str	ip, [sp, #116]
.LVL47:
.LBE36:
.LBB37:
	.loc 1 248 0
	.syntax unified
@ 248 "synth.c" 1
	smull	r1, r5, r3, r4
	movs	r1, r1, lsr #28
	adc	ip, r1, r5, lsl #4
@ 0 "" 2
	.thumb
	.syntax unified
.LBE37:
	.loc 1 250 0
	ldr	r1, [r0, #4]
.LBB38:
	movw	r5, #43712
	movt	r5, 4051
.LBE38:
.LBB39:
	.loc 1 248 0
	str	ip, [sp, #100]
.LVL48:
.LBE39:
.LBB40:
	.loc 1 254 0
	movw	ip, #41131
.LBE40:
	.loc 1 250 0
	adds	r3, r1, r2
.LVL49:
.LBB41:
	subs	r1, r1, r2
	.syntax unified
@ 250 "synth.c" 1
	smull	r2, r4, r1, r5
	movs	r2, r2, lsr #28
	adc	r5, r2, r4, lsl #4
@ 0 "" 2
.LVL50:
	.thumb
	.syntax unified
.LBE41:
	.loc 1 251 0
	ldr	r1, [r0, #68]
.LBB42:
	.loc 1 254 0
	movt	ip, 3919
.LBE42:
	.loc 1 251 0
	ldr	r4, [r0, #56]
	adds	r2, r4, r1
.LVL51:
.LBB43:
	subs	r4, r4, r1
	movw	r1, #526
	movt	r1, 601
	.syntax unified
@ 251 "synth.c" 1
	smull	r6, r7, r4, r1
	movs	r6, r6, lsr #28
	adc	r1, r6, r7, lsl #4
@ 0 "" 2
.LVL52:
	.thumb
	.syntax unified
.LBE43:
	.loc 1 253 0
	adds	r7, r5, r1
.LBB44:
	.loc 1 254 0
	subs	r1, r5, r1
.LVL53:
.LBE44:
	.loc 1 253 0
	str	r7, [sp, #36]
.LVL54:
	.loc 1 255 0
	adds	r7, r3, r2
.LVL55:
.LBB45:
	.loc 1 254 0
	.syntax unified
@ 254 "synth.c" 1
	smull	r4, r5, r1, ip
	movs	r4, r4, lsr #28
	adc	lr, r4, r5, lsl #4
@ 0 "" 2
.LVL56:
	.thumb
	.syntax unified
.LBE45:
.LBB46:
	.loc 1 256 0
	subs	r3, r3, r2
.LVL57:
.LBE46:
	.loc 1 258 0
	ldr	r2, [r0, #100]
.LVL58:
.LBB47:
	.loc 1 256 0
	.syntax unified
@ 256 "synth.c" 1
	smull	r1, r4, r3, ip
	movs	r1, r1, lsr #28
	adc	ip, r1, r4, lsl #4
@ 0 "" 2
	.thumb
	.syntax unified
.LBE47:
	.loc 1 258 0
	ldr	r1, [r0, #24]
.LBB48:
	movw	r5, #61476
	movt	r5, 3289
.LBE48:
.LBB49:
	.loc 1 256 0
	str	ip, [sp, #104]
.LVL59:
.LBE49:
.LBB50:
	.loc 1 254 0
	str	lr, [sp, #120]
.LVL60:
.LBE50:
	.loc 1 258 0
	adds	r3, r1, r2
.LVL61:
.LBB51:
	subs	r1, r1, r2
	.syntax unified
@ 258 "synth.c" 1
	smull	r2, r4, r1, r5
	movs	r2, r2, lsr #28
	adc	r5, r2, r4, lsl #4
@ 0 "" 2
.LVL62:
	.thumb
	.syntax unified
.LBE51:
	.loc 1 259 0
	ldr	r1, [r0, #88]
	ldr	r4, [r0, #36]
	adds	r2, r4, r1
.LVL63:
.LBB52:
	subs	r4, r4, r1
	movw	r1, #64510
.LBE52:
	.loc 1 263 0
	add	r9, r3, r2
.LBB53:
	.loc 1 259 0
	movt	r1, 2439
.LBE53:
.LBB54:
	.loc 1 264 0
	subs	r3, r3, r2
.LVL64:
.LBE54:
.LBB55:
	.loc 1 259 0
	.syntax unified
@ 259 "synth.c" 1
	smull	r6, ip, r4, r1
	movs	r6, r6, lsr #28
	adc	r1, r6, ip, lsl #4
@ 0 "" 2
.LVL65:
	.thumb
	.syntax unified
.LBE55:
.LBB56:
	.loc 1 262 0
	mov	ip, #396
.LBE56:
	.loc 1 261 0
	add	r8, r5, r1
.LVL66:
.LBB57:
	.loc 1 262 0
	movt	ip, 1189
	subs	r1, r5, r1
.LVL67:
	.syntax unified
@ 262 "synth.c" 1
	smull	r4, r5, r1, ip
	movs	r4, r4, lsr #28
	adc	lr, r4, r5, lsl #4
@ 0 "" 2
.LVL68:
	.thumb
	.syntax unified
.LBE57:
.LBB58:
	.loc 1 264 0
	.syntax unified
@ 264 "synth.c" 1
	smull	r1, r4, r3, ip
	movs	r1, r1, lsr #28
	adc	ip, r1, r4, lsl #4
@ 0 "" 2
	.thumb
	.syntax unified
.LBE58:
	.loc 1 266 0
	ldr	r4, [r0, #8]
	ldr	r3, [r0, #116]
.LBB59:
	.loc 1 264 0
	str	ip, [sp, #132]
.LVL69:
.LBE59:
.LBB60:
	.loc 1 262 0
	str	lr, [sp, #128]
.LVL70:
.LBE60:
	.loc 1 266 0
	adds	r1, r4, r3
.LVL71:
.LBB61:
	subs	r3, r4, r3
	movw	r4, #16254
	movt	r4, 3973
	.syntax unified
@ 266 "synth.c" 1
	smull	r2, r5, r3, r4
	movs	r2, r2, lsr #28
	adc	r4, r2, r5, lsl #4
@ 0 "" 2
.LVL72:
	.thumb
	.syntax unified
.LBE61:
	.loc 1 267 0
	ldr	r3, [r0, #72]
	ldr	r2, [r0, #52]
	add	ip, r2, r3
.LVL73:
.LBB62:
	subs	r2, r2, r3
	movw	r3, #16175
	movt	r3, 995
	.syntax unified
@ 267 "synth.c" 1
	smull	r5, r6, r2, r3
	movs	r5, r5, lsr #28
	adc	r3, r5, r6, lsl #4
@ 0 "" 2
.LVL74:
	.thumb
	.syntax unified
.LBE62:
.LBB63:
	.loc 1 270 0
	movw	r2, #22905
.LBE63:
	.loc 1 269 0
	adds	r5, r4, r3
.LVL75:
.LBB64:
	.loc 1 270 0
	movt	r2, 3612
	subs	r3, r4, r3
.LVL76:
	.syntax unified
@ 270 "synth.c" 1
	smull	r4, r6, r3, r2
	movs	r4, r4, lsr #28
	adc	r3, r4, r6, lsl #4
@ 0 "" 2
.LVL77:
	.thumb
	.syntax unified
.LBE64:
	.loc 1 271 0
	add	r6, r1, ip
.LVL78:
.LBB65:
	.loc 1 272 0
	sub	r1, r1, ip
.LVL79:
.LBE65:
	.loc 1 274 0
	ldr	ip, [r0, #20]
.LVL80:
.LBB66:
	.loc 1 272 0
	.syntax unified
@ 272 "synth.c" 1
	smull	r4, lr, r1, r2
	movs	r4, r4, lsr #28
	adc	r1, r4, lr, lsl #4
@ 0 "" 2
.LVL81:
	.thumb
	.syntax unified
.LBE66:
	.loc 1 274 0
	ldr	r2, [r0, #104]
	add	r4, ip, r2
.LVL82:
.LBB67:
	sub	r2, ip, r2
	movw	ip, #16803
	movt	ip, 3513
	.syntax unified
@ 274 "synth.c" 1
	smull	lr, r10, r2, ip
	movs	lr, lr, lsr #28
	adc	r2, lr, r10, lsl #4
@ 0 "" 2
	.thumb
	.syntax unified
	str	r2, [sp, #12]
.LVL83:
.LBE67:
	.loc 1 275 0
	ldr	r2, [r0, #40]
	ldr	r0, [r0, #84]
.LVL84:
	add	r10, r2, r0
.LVL85:
.LBB68:
	subs	r0, r2, r0
	movw	r2, #50125
	movt	r2, 2105
	.syntax unified
@ 275 "synth.c" 1
	smull	lr, ip, r0, r2
	movs	lr, lr, lsr #28
	adc	r2, lr, ip, lsl #4
@ 0 "" 2
.LVL86:
	.thumb
	.syntax unified
.LBE68:
	.loc 1 277 0
	ldr	r0, [sp, #12]
	add	lr, r0, r2
.LBB69:
	.loc 1 278 0
	ldr	r0, [sp, #12]
.LBE69:
	.loc 1 277 0
	str	lr, [sp, #40]
.LVL87:
.LBB70:
	.loc 1 278 0
	subs	r2, r0, r2
.LVL88:
	movw	r0, #55118
	movt	r0, 1930
	.syntax unified
@ 278 "synth.c" 1
	smull	ip, lr, r2, r0
	movs	ip, ip, lsr #28
	adc	r2, ip, lr, lsl #4
@ 0 "" 2
	.thumb
	.syntax unified
.LBE70:
	.loc 1 279 0
	add	ip, r4, r10
.LBB71:
	.loc 1 278 0
	str	r2, [sp, #136]
.LVL89:
.LBE71:
	.loc 1 279 0
	str	ip, [sp, #44]
.LVL90:
.LBB72:
	.loc 1 280 0
	sub	r4, r4, r10
.LVL91:
.LBE72:
	.loc 1 282 0
	ldr	r2, [sp, #4]
.LBB73:
	.loc 1 280 0
	.syntax unified
@ 280 "synth.c" 1
	smull	ip, r10, r4, r0
	movs	ip, ip, lsr #28
	adc	r0, ip, r10, lsl #4
@ 0 "" 2
.LVL92:
	.thumb
	.syntax unified
.LBE73:
	.loc 1 282 0
	ldr	r4, [sp, #16]
	add	r2, r2, r4
	str	r2, [sp, #12]
.LVL93:
.LBB74:
	ldr	r2, [sp, #4]
.LVL94:
	subs	r4, r2, r4
.LVL95:
	movw	r2, #19432
.LVL96:
	movt	r2, 4017
	.syntax unified
@ 282 "synth.c" 1
	smull	ip, r10, r4, r2
	movs	ip, ip, lsr #28
	adc	lr, ip, r10, lsl #4
@ 0 "" 2
	.thumb
	.syntax unified
.LBE74:
	.loc 1 283 0
	ldr	r4, [sp, #8]
.LBB75:
	.loc 1 282 0
	str	lr, [sp, #60]
.LVL97:
.LBE75:
	.loc 1 283 0
	mov	ip, r4
.LBB76:
	ldr	r4, [sp, #8]
.LBE76:
	add	ip, ip, fp
	str	ip, [sp, #4]
.LVL98:
.LBB77:
	sub	r4, r4, fp
	movw	fp, #5896
.LVL99:
	movt	fp, 799
	.syntax unified
@ 283 "synth.c" 1
	smull	ip, r10, r4, fp
	movs	ip, ip, lsr #28
	adc	lr, ip, r10, lsl #4
@ 0 "" 2
	.thumb
	.syntax unified
.LBE77:
	.loc 1 284 0
	add	ip, r7, r9
.LBB78:
	.loc 1 283 0
	str	lr, [sp, #64]
.LVL100:
.LBE78:
.LBB79:
	.loc 1 284 0
	movw	lr, #45845
.LBE79:
	str	ip, [sp, #8]
.LVL101:
.LBB80:
	movt	lr, 3405
	sub	r7, r7, r9
.LVL102:
	.syntax unified
@ 284 "synth.c" 1
	smull	r4, ip, r7, lr
	movs	r4, r4, lsr #28
	adc	r9, r4, ip, lsl #4
@ 0 "" 2
.LVL103:
	.thumb
	.syntax unified
.LBE80:
	.loc 1 285 0
	ldr	r4, [sp, #44]
.LBB81:
	movw	r10, #40349
	movt	r10, 2275
.LBE81:
.LBB82:
	.loc 1 284 0
	str	r9, [sp, #68]
.LVL104:
.LBE82:
	.loc 1 285 0
	adds	r7, r6, r4
.LBB83:
	subs	r6, r6, r4
.LVL105:
	.syntax unified
@ 285 "synth.c" 1
	smull	r4, ip, r6, r10
	movs	r4, r4, lsr #28
	adc	r9, r4, ip, lsl #4
@ 0 "" 2
	.thumb
	.syntax unified
.LBE83:
	.loc 1 286 0
	ldr	r6, [sp, #20]
	ldr	r4, [sp, #24]
	.loc 1 285 0
	str	r7, [sp, #16]
.LVL106:
.LBB84:
	str	r9, [sp, #72]
.LVL107:
.LBE84:
	.loc 1 294 0
	add	r9, r1, r0
	.loc 1 286 0
	adds	r7, r6, r4
.LBB85:
	sub	ip, r6, r4
	.syntax unified
@ 286 "synth.c" 1
	smull	r4, r6, ip, r2
	movs	r4, r4, lsr #28
	adc	ip, r4, r6, lsl #4
@ 0 "" 2
	.thumb
	.syntax unified
.LBE85:
	.loc 1 287 0
	ldr	r6, [sp, #28]
.LBB86:
	.loc 1 294 0
	subs	r0, r1, r0
.LVL108:
.LBE86:
	.loc 1 287 0
	ldr	r4, [sp, #32]
	.loc 1 286 0
	str	r7, [sp, #20]
.LVL109:
.LBB87:
	str	ip, [sp, #76]
.LVL110:
.LBE87:
	.loc 1 287 0
	adds	r7, r6, r4
.LVL111:
.LBB88:
	sub	ip, r6, r4
	.syntax unified
@ 287 "synth.c" 1
	smull	r4, r6, ip, fp
	movs	r4, r4, lsr #28
	adc	ip, r4, r6, lsl #4
@ 0 "" 2
.LVL112:
	.thumb
	.syntax unified
.LBE88:
	.loc 1 288 0
	ldr	r4, [sp, #36]
.LBB89:
	.loc 1 287 0
	str	ip, [sp, #80]
.LVL113:
.LBE89:
	.loc 1 288 0
	mov	ip, r4
	add	ip, ip, r8
.LBB90:
	sub	r8, r4, r8
.LVL114:
.LBE90:
	str	ip, [sp, #24]
.LVL115:
.LBB91:
	.syntax unified
@ 288 "synth.c" 1
	smull	r4, r6, r8, lr
	movs	r4, r4, lsr #28
	adc	ip, r4, r6, lsl #4
@ 0 "" 2
	.thumb
	.syntax unified
.LBE91:
	.loc 1 289 0
	ldr	r6, [sp, #40]
.LBB92:
	.loc 1 288 0
	str	ip, [sp, #84]
.LVL116:
.LBE92:
	.loc 1 289 0
	adds	r4, r5, r6
.LBB93:
	subs	r5, r5, r6
.LVL117:
.LBE93:
	str	r4, [sp, #28]
.LVL118:
.LBB94:
	.syntax unified
@ 289 "synth.c" 1
	smull	r4, r6, r5, r10
	movs	r4, r4, lsr #28
	adc	ip, r4, r6, lsl #4
@ 0 "" 2
	.thumb
	.syntax unified
.LBE94:
	.loc 1 291 0
	ldr	r6, [sp, #52]
	ldr	r4, [sp, #92]
.LBB95:
	.loc 1 289 0
	str	ip, [sp, #88]
.LVL119:
.LBE95:
	.loc 1 291 0
	adds	r5, r6, r4
.LBB96:
	subs	r4, r6, r4
.LBE96:
	str	r5, [sp, #32]
.LVL120:
.LBB97:
	.syntax unified
@ 291 "synth.c" 1
	smull	r5, r6, r4, r2
	movs	r5, r5, lsr #28
	adc	ip, r5, r6, lsl #4
@ 0 "" 2
	.thumb
	.syntax unified
.LBE97:
	.loc 1 292 0
	ldr	r6, [sp, #96]
	ldr	r4, [sp, #100]
.LBB98:
	.loc 1 291 0
	str	ip, [sp, #92]
.LVL121:
.LBE98:
	.loc 1 292 0
	adds	r5, r6, r4
.LBB99:
	subs	r4, r6, r4
.LBE99:
	str	r5, [sp, #36]
.LVL122:
.LBB100:
	.syntax unified
@ 292 "synth.c" 1
	smull	r5, r6, r4, fp
	movs	r5, r5, lsr #28
	adc	ip, r5, r6, lsl #4
@ 0 "" 2
	.thumb
	.syntax unified
	str	ip, [sp, #96]
.LVL123:
.LBE100:
	.loc 1 293 0
	ldr	r6, [sp, #104]
.LVL124:
	ldr	r4, [sp, #132]
	adds	r5, r6, r4
.LBB101:
	sub	ip, r6, r4
.LBE101:
	str	r5, [sp, #40]
.LVL125:
.LBB102:
	.syntax unified
@ 293 "synth.c" 1
	smull	r4, r5, ip, lr
	movs	r4, r4, lsr #28
	adc	ip, r4, r5, lsl #4
@ 0 "" 2
	.thumb
	.syntax unified
.LBE102:
	.loc 1 296 0
	ldr	r5, [sp, #48]
.LBB103:
	.loc 1 293 0
	str	ip, [sp, #100]
.LVL126:
.LBE103:
.LBB104:
	.loc 1 294 0
	.syntax unified
@ 294 "synth.c" 1
	smull	r1, r4, r0, r10
	movs	r1, r1, lsr #28
	adc	ip, r1, r4, lsl #4
@ 0 "" 2
.LVL127:
	.thumb
	.syntax unified
.LBE104:
	.loc 1 296 0
	ldr	r0, [sp, #108]
.LBB105:
	.loc 1 294 0
	str	ip, [sp, #104]
.LBE105:
	.loc 1 302 0
	ldr	r6, [sp, #8]
.LVL128:
	.loc 1 296 0
	adds	r1, r5, r0
.LBB106:
	subs	r5, r5, r0
.LBE106:
	str	r1, [sp, #44]
.LVL129:
.LBB107:
	.syntax unified
@ 296 "synth.c" 1
	smull	r1, r0, r5, r2
	movs	r1, r1, lsr #28
	adc	ip, r1, r0, lsl #4
@ 0 "" 2
	.thumb
	.syntax unified
.LBE107:
	.loc 1 297 0
	ldr	r0, [sp, #112]
	ldr	r5, [sp, #116]
.LBB108:
	.loc 1 296 0
	str	ip, [sp, #108]
.LVL130:
.LBE108:
	.loc 1 297 0
	adds	r2, r0, r5
.LBB109:
	subs	r1, r0, r5
.LBE109:
	.loc 1 298 0
	ldr	r5, [sp, #128]
.LBB110:
	.loc 1 297 0
	.syntax unified
@ 297 "synth.c" 1
	smull	r0, r4, r1, fp
	movs	r0, r0, lsr #28
	adc	ip, r0, r4, lsl #4
@ 0 "" 2
	.thumb
	.syntax unified
.LBE110:
	.loc 1 298 0
	ldr	r0, [sp, #120]
.LBB111:
	.loc 1 366 0
	movw	fp, #13800
.LBE111:
.LBB112:
	.loc 1 297 0
	str	ip, [sp, #112]
.LVL131:
.LBE112:
.LBB113:
	.loc 1 366 0
	movt	fp, 3784
.LBE113:
	.loc 1 297 0
	str	r2, [sp, #48]
.LVL132:
	.loc 1 298 0
	adds	r1, r0, r5
	str	r1, [sp, #52]
.LVL133:
.LBB114:
	subs	r1, r0, r5
.LBE114:
	.loc 1 299 0
	ldr	r5, [sp, #136]
.LBB115:
	.loc 1 298 0
	.syntax unified
@ 298 "synth.c" 1
	smull	r0, r4, r1, lr
	movs	r0, r0, lsr #28
	adc	ip, r0, r4, lsl #4
@ 0 "" 2
	.thumb
	.syntax unified
.LBE115:
	.loc 1 301 0
	ldr	r0, [sp, #12]
	.loc 1 299 0
	add	r8, r3, r5
.LVL134:
.LBB116:
	subs	r3, r3, r5
.LVL135:
.LBE116:
	.loc 1 301 0
	ldr	r5, [sp, #4]
	ldr	r4, [sp]
.LBB117:
	.loc 1 298 0
	str	ip, [sp, #116]
.LVL136:
.LBE117:
.LBB118:
	.loc 1 299 0
	.syntax unified
@ 299 "synth.c" 1
	smull	r2, r1, r3, r10
	movs	r2, r2, lsr #28
	adc	ip, r2, r1, lsl #4
@ 0 "" 2
	.thumb
	.syntax unified
.LBE118:
	.loc 1 301 0
	adds	r2, r0, r5
.LVL137:
	.loc 1 302 0
	ldr	r0, [sp, #16]
	lsls	r1, r4, #2
.LBB119:
	.loc 1 305 0
	movw	r10, #20275
	movt	r10, 2896
.LBE119:
.LBB120:
	.loc 1 299 0
	str	ip, [sp, #120]
.LVL138:
.LBE120:
	.loc 1 302 0
	adds	r3, r6, r0
.LVL139:
	ldr	r0, [sp, #56]
	adds	r5, r0, r1
	.loc 1 304 0
	adds	r0, r2, r3
	str	r0, [r5, #480]
.LVL140:
.LBB121:
	.loc 1 305 0
	subs	r3, r2, r3
.LVL141:
	.syntax unified
@ 305 "synth.c" 1
	smull	r2, r0, r3, r10
	movs	r2, r2, lsr #28
	adc	r3, r2, r0, lsl #4
@ 0 "" 2
.LVL142:
	.thumb
	.syntax unified
	ldr	r0, [sp, #124]
.LBE121:
	.loc 1 308 0
	ldr	r2, [sp, #28]
	.loc 1 307 0
	str	r7, [sp, #124]
.LVL143:
	.loc 1 305 0
	str	r3, [r0, r4, lsl #2]
	add	r1, r1, r0
	.loc 1 307 0
	ldr	r3, [sp, #20]
.LVL144:
	add	r3, r3, r7
	mov	r7, r3
.LVL145:
	.loc 1 308 0
	ldr	r3, [sp, #24]
.LVL146:
	.loc 1 310 0
	str	r7, [sp, #128]
	.loc 1 314 0
	ldr	r6, [sp, #36]
.LVL147:
	.loc 1 308 0
	add	r3, r3, r2
	.loc 1 330 0
	ldr	r4, [sp, #64]
	.loc 1 308 0
	mov	r2, r3
.LVL148:
	.loc 1 310 0
	mov	r3, r7
	str	r2, [sp, #132]
	add	r3, r3, r2
.LVL149:
	.loc 1 314 0
	ldr	r2, [sp, #32]
.LVL150:
	.loc 1 331 0
	ldr	r0, [sp, #72]
.LVL151:
	.loc 1 312 0
	str	r3, [r5, #448]
	.loc 1 314 0
	adds	r7, r2, r6
.LVL152:
	.loc 1 315 0
	ldr	r2, [sp, #40]
	.loc 1 317 0
	str	r7, [sp, #136]
	.loc 1 315 0
	mov	ip, r2
	add	ip, ip, r9
.LVL153:
	mov	r6, ip
	.loc 1 317 0
	str	ip, [sp, #140]
	adds	r2, r7, r6
.LVL154:
	.loc 1 321 0
	ldr	r7, [sp, #44]
.LVL155:
	ldr	r6, [sp, #48]
	.loc 1 319 0
	str	r2, [r5, #416]
	.loc 1 321 0
	adds	r6, r7, r6
.LVL156:
	.loc 1 322 0
	ldr	r7, [sp, #52]
	.loc 1 324 0
	str	r6, [sp, #144]
	.loc 1 322 0
	mov	ip, r7
.LVL157:
	add	ip, ip, r8
	mov	r7, ip
.LVL158:
	.loc 1 324 0
	mov	ip, r6
	.loc 1 330 0
	ldr	r6, [sp, #60]
.LVL159:
	.loc 1 324 0
	add	ip, ip, r7
.LVL160:
	str	r7, [sp, #148]
	.loc 1 326 0
	rsb	r3, r3, ip, lsl #1
.LVL161:
	.loc 1 337 0
	ldr	r7, [sp, #76]
.LVL162:
	.loc 1 330 0
	add	r6, r6, r4
.LVL163:
	.loc 1 331 0
	ldr	r4, [sp, #68]
	.loc 1 328 0
	str	r3, [r5, #384]
	.loc 1 331 0
	add	r4, r4, r0
.LVL164:
	.loc 1 333 0
	str	r4, [sp, #152]
	adds	r4, r6, r4
.LVL165:
	.loc 1 335 0
	str	r4, [sp, #156]
	str	r4, [r5, #352]
	.loc 1 337 0
	ldr	r4, [sp, #80]
.LVL166:
	adds	r0, r7, r4
.LVL167:
	.loc 1 338 0
	ldr	r7, [sp, #84]
	ldr	r4, [sp, #88]
	.loc 1 340 0
	str	r0, [sp, #160]
	.loc 1 338 0
	adds	r4, r7, r4
.LVL168:
	.loc 1 346 0
	ldr	r7, [sp, #92]
	.loc 1 340 0
	add	r0, r0, r4
.LVL169:
	str	r4, [sp, #164]
	.loc 1 342 0
	str	r0, [sp, #168]
	rsb	r3, r3, r0, lsl #1
.LVL170:
	.loc 1 346 0
	ldr	r0, [sp, #96]
.LVL171:
	.loc 1 344 0
	str	r3, [r5, #320]
	.loc 1 347 0
	ldr	r4, [sp, #100]
.LVL172:
	.loc 1 346 0
	adds	r0, r7, r0
.LVL173:
	.loc 1 347 0
	ldr	r7, [sp, #104]
	.loc 1 349 0
	str	r0, [sp, #172]
	.loc 1 347 0
	add	r4, r4, r7
.LVL174:
	.loc 1 349 0
	add	r0, r0, r4
.LVL175:
	str	r4, [sp, #176]
	.loc 1 351 0
	str	r0, [sp, #180]
	rsb	r2, r2, r0, lsl #1
.LVL176:
	.loc 1 355 0
	ldr	r4, [sp, #108]
.LVL177:
	ldr	r0, [sp, #112]
.LVL178:
	.loc 1 353 0
	str	r2, [r5, #288]
	.loc 1 355 0
	add	r4, r4, r0
	.loc 1 356 0
	ldr	r0, [sp, #120]
	.loc 1 355 0
	mov	r7, r4
.LVL179:
	.loc 1 356 0
	ldr	r4, [sp, #116]
.LVL180:
	.loc 1 358 0
	str	r7, [sp, #184]
	.loc 1 356 0
	add	r4, r4, r0
	mov	r0, r4
.LVL181:
.LBB122:
	.loc 1 366 0
	ldr	r4, [sp, #12]
.LBE122:
	.loc 1 358 0
	add	r7, r7, r0
.LVL182:
	str	r0, [sp, #188]
	.loc 1 360 0
	rsb	r0, ip, r7, lsl #1
.LVL183:
	str	r7, [sp, #192]
	.loc 1 362 0
	str	r0, [sp, #196]
	rsb	r3, r3, r0, lsl #1
.LVL184:
.LBB123:
	.loc 1 366 0
	ldr	r0, [sp, #4]
.LVL185:
.LBE123:
	.loc 1 364 0
	str	r3, [r5, #256]
.LBB124:
	.loc 1 366 0
	subs	r0, r4, r0
	.syntax unified
@ 366 "synth.c" 1
	smull	r7, lr, r0, fp
	movs	r7, r7, lsr #28
	adc	r4, r7, lr, lsl #4
@ 0 "" 2
.LVL186:
	.thumb
	.syntax unified
.LBE124:
.LBB125:
	.loc 1 367 0
	ldr	r7, [sp, #16]
	movw	lr, #30890
	ldr	r0, [sp, #8]
	movt	lr, 1567
	subs	r0, r0, r7
	.syntax unified
@ 367 "synth.c" 1
	smull	r7, ip, r0, lr
	movs	r7, r7, lsr #28
	adc	r0, r7, ip, lsl #4
@ 0 "" 2
.LVL187:
	.thumb
	.syntax unified
.LBE125:
	.loc 1 368 0
	adds	r7, r4, r0
.LVL188:
.LBB126:
	.loc 1 372 0
	subs	r0, r4, r0
.LVL189:
	.syntax unified
@ 372 "synth.c" 1
	smull	r4, ip, r0, r10
	movs	r4, r4, lsr #28
	adc	r0, r4, ip, lsl #4
@ 0 "" 2
.LVL190:
	.thumb
	.syntax unified
.LBE126:
	rsb	r0, r7, r0, lsl #1
.LVL191:
	.loc 1 370 0
	str	r7, [r5, #224]
.LBB127:
	.loc 1 374 0
	ldr	r4, [sp, #20]
.LBE127:
	.loc 1 371 0
	str	r0, [r1, #256]
.LVL192:
.LBB128:
	.loc 1 374 0
	ldr	r0, [sp, #124]
	subs	r0, r4, r0
	.syntax unified
@ 374 "synth.c" 1
	smull	r4, r7, r0, fp
	movs	r4, r4, lsr #28
	adc	r0, r4, r7, lsl #4
@ 0 "" 2
.LVL193:
	.thumb
	.syntax unified
.LBE128:
.LBB129:
	.loc 1 375 0
	ldr	r4, [sp, #28]
.LBE129:
.LBB130:
	.loc 1 374 0
	str	r0, [sp, #4]
.LVL194:
.LBE130:
.LBB131:
	.loc 1 375 0
	ldr	r0, [sp, #24]
	subs	r0, r0, r4
	.syntax unified
@ 375 "synth.c" 1
	smull	r4, r7, r0, lr
	movs	r4, r4, lsr #28
	adc	r0, r4, r7, lsl #4
@ 0 "" 2
	.thumb
	.syntax unified
	mov	r4, r0
.LVL195:
.LBE131:
	.loc 1 376 0
	ldr	r0, [sp, #4]
.LVL196:
	str	r4, [sp, #124]
.LVL197:
	add	r0, r0, r4
.LVL198:
.LBB132:
	.loc 1 382 0
	ldr	r4, [sp, #36]
.LVL199:
.LBE132:
	.loc 1 378 0
	str	r0, [sp, #16]
.LVL200:
	rsb	r3, r3, r0, lsl #1
.LVL201:
.LBB133:
	.loc 1 382 0
	ldr	r0, [sp, #32]
.LVL202:
.LBE133:
	.loc 1 380 0
	str	r3, [r5, #192]
.LBB134:
	.loc 1 382 0
	subs	r4, r0, r4
	.syntax unified
@ 382 "synth.c" 1
	smull	r0, r7, r4, fp
	movs	r0, r0, lsr #28
	adc	r4, r0, r7, lsl #4
@ 0 "" 2
.LVL203:
	.thumb
	.syntax unified
.LBE134:
.LBB135:
	.loc 1 383 0
	ldr	r0, [sp, #40]
	sub	r7, r0, r9
	.syntax unified
@ 383 "synth.c" 1
	smull	r0, r9, r7, lr
	movs	r0, r0, lsr #28
	adc	r7, r0, r9, lsl #4
@ 0 "" 2
.LVL204:
	.thumb
	.syntax unified
.LBE135:
	.loc 1 384 0
	adds	r0, r4, r7
	str	r7, [sp, #36]
.LVL205:
	.loc 1 386 0
	rsb	r2, r2, r0, lsl #1
.LVL206:
.LBB136:
	.loc 1 390 0
	ldr	r7, [sp, #48]
.LVL207:
.LBE136:
	.loc 1 386 0
	str	r0, [sp, #20]
.LBB137:
	.loc 1 390 0
	ldr	r0, [sp, #44]
.LVL208:
.LBE137:
	.loc 1 388 0
	str	r2, [r5, #160]
.LBB138:
	.loc 1 390 0
	subs	r0, r0, r7
	.syntax unified
@ 390 "synth.c" 1
	smull	r9, ip, r0, fp
	movs	r9, r9, lsr #28
	adc	r0, r9, ip, lsl #4
@ 0 "" 2
	.thumb
	.syntax unified
	mov	r7, r0
.LVL209:
.LBE138:
.LBB139:
	.loc 1 391 0
	ldr	r0, [sp, #52]
.LVL210:
.LBE139:
	.loc 1 392 0
	str	r7, [sp, #40]
.LBB140:
	.loc 1 391 0
	sub	r0, r0, r8
	.syntax unified
@ 391 "synth.c" 1
	smull	r9, r8, r0, lr
	movs	r9, r9, lsr #28
	adc	r0, r9, r8, lsl #4
@ 0 "" 2
.LVL211:
	.thumb
	.syntax unified
	str	r0, [sp, #8]
.LVL212:
.LBE140:
	.loc 1 392 0
	mov	r0, r7
	ldr	r7, [sp, #8]
.LVL213:
	add	r0, r0, r7
.LVL214:
	.loc 1 394 0
	ldr	r7, [sp, #196]
	str	r0, [sp, #24]
	rsb	ip, r7, r0, lsl #1
.LVL215:
.LBB141:
	.loc 1 400 0
	ldr	r7, [sp, #64]
	ldr	r0, [sp, #60]
.LVL216:
.LBE141:
	.loc 1 396 0
	str	ip, [sp, #28]
	rsb	r3, r3, ip, lsl #1
.LVL217:
.LBB142:
	.loc 1 400 0
	subs	r0, r0, r7
.LBE142:
.LBB143:
	.loc 1 401 0
	ldr	r7, [sp, #68]
.LBE143:
.LBB144:
	.loc 1 400 0
	.syntax unified
@ 400 "synth.c" 1
	smull	ip, r9, r0, fp
	movs	ip, ip, lsr #28
	adc	r0, ip, r9, lsl #4
@ 0 "" 2
.LVL218:
	.thumb
	.syntax unified
.LBE144:
	.loc 1 398 0
	str	r3, [r5, #128]
.LBB145:
	.loc 1 401 0
	mov	ip, r7
	ldr	r7, [sp, #72]
	sub	ip, ip, r7
	.syntax unified
@ 401 "synth.c" 1
	smull	r9, r8, ip, lr
	movs	r9, r9, lsr #28
	adc	r7, r9, r8, lsl #4
@ 0 "" 2
.LVL219:
	.thumb
	.syntax unified
.LBE145:
	.loc 1 402 0
	str	r7, [sp, #12]
	add	r9, r0, r7
.LVL220:
	.loc 1 404 0
	ldr	r7, [sp, #156]
.LVL221:
	rsb	r8, r7, r9, lsl #1
.LVL222:
.LBB146:
	.loc 1 408 0
	ldr	r7, [sp, #152]
.LBE146:
	.loc 1 406 0
	str	r8, [r5, #96]
.LBB147:
	.loc 1 408 0
	subs	r6, r6, r7
.LVL223:
	.syntax unified
@ 408 "synth.c" 1
	smull	r7, ip, r6, r10
	movs	r7, r7, lsr #28
	adc	r6, r7, ip, lsl #4
@ 0 "" 2
.LVL224:
	.thumb
	.syntax unified
.LBE147:
.LBB148:
	.loc 1 412 0
	ldr	r7, [sp, #12]
.LBE148:
	.loc 1 408 0
	rsb	r6, r8, r6, lsl #1
.LVL225:
	.loc 1 410 0
	str	r6, [r1, #128]
.LVL226:
.LBB149:
	.loc 1 412 0
	subs	r0, r0, r7
.LVL227:
.LBE149:
.LBB150:
	.loc 1 414 0
	ldr	r7, [sp, #76]
.LBE150:
.LBB151:
	.loc 1 412 0
	.syntax unified
@ 412 "synth.c" 1
	smull	ip, r8, r0, r10
	movs	ip, ip, lsr #28
	adc	r0, ip, r8, lsl #4
@ 0 "" 2
.LVL228:
	.thumb
	.syntax unified
.LBE151:
	rsb	r0, r9, r0, lsl #1
.LVL229:
	rsb	r6, r6, r0, lsl #1
.LVL230:
	.loc 1 411 0
	str	r6, [r1, #384]
.LBB152:
	.loc 1 414 0
	ldr	r6, [sp, #80]
	sub	ip, r7, r6
.LBE152:
.LBB153:
	.loc 1 415 0
	ldr	r7, [sp, #84]
.LBE153:
.LBB154:
	.loc 1 414 0
	.syntax unified
@ 414 "synth.c" 1
	smull	r0, r6, ip, fp
	movs	r0, r0, lsr #28
	adc	ip, r0, r6, lsl #4
@ 0 "" 2
	.thumb
	.syntax unified
.LBE154:
.LBB155:
	.loc 1 415 0
	ldr	r6, [sp, #88]
.LBE155:
.LBB156:
	.loc 1 414 0
	str	ip, [sp, #12]
.LVL231:
.LBE156:
.LBB157:
	.loc 1 415 0
	sub	ip, r7, r6
	.syntax unified
@ 415 "synth.c" 1
	smull	r0, r6, ip, lr
	movs	r0, r0, lsr #28
	adc	ip, r0, r6, lsl #4
@ 0 "" 2
.LVL232:
	.thumb
	.syntax unified
.LBE157:
	.loc 1 416 0
	ldr	r6, [sp, #12]
	str	ip, [sp, #44]
	add	r6, r6, ip
	mov	r7, r6
.LVL233:
	.loc 1 418 0
	ldr	r6, [sp, #168]
.LVL234:
	str	r7, [sp, #32]
	mov	ip, r6
.LVL235:
	rsb	r6, ip, r7, lsl #1
.LVL236:
	.loc 1 420 0
	rsb	r3, r3, r6, lsl #1
.LVL237:
	.loc 1 422 0
	str	r3, [r5, #64]
.LVL238:
.LBB158:
	.loc 1 424 0
	ldr	r7, [sp, #164]
.LVL239:
	ldr	r0, [sp, #160]
	subs	r0, r0, r7
.LBE158:
.LBB159:
	.loc 1 426 0
	ldr	r7, [sp, #92]
.LBE159:
.LBB160:
	.loc 1 424 0
	.syntax unified
@ 424 "synth.c" 1
	smull	ip, r8, r0, r10
	movs	ip, ip, lsr #28
	adc	r0, ip, r8, lsl #4
@ 0 "" 2
.LVL240:
	.thumb
	.syntax unified
.LBE160:
	rsb	r6, r6, r0, lsl #1
.LVL241:
.LBB161:
	.loc 1 426 0
	ldr	r0, [sp, #96]
.LVL242:
	subs	r0, r7, r0
.LBE161:
.LBB162:
	.loc 1 427 0
	ldr	r7, [sp, #100]
.LBE162:
.LBB163:
	.loc 1 426 0
	.syntax unified
@ 426 "synth.c" 1
	smull	ip, r8, r0, fp
	movs	ip, ip, lsr #28
	adc	r0, ip, r8, lsl #4
@ 0 "" 2
.LVL243:
	.thumb
	.syntax unified
.LBE163:
.LBB164:
	.loc 1 427 0
	mov	ip, r7
	ldr	r7, [sp, #104]
	sub	ip, ip, r7
	.syntax unified
@ 427 "synth.c" 1
	smull	r8, r9, ip, lr
	movs	r8, r8, lsr #28
	adc	r7, r8, r9, lsl #4
@ 0 "" 2
.LVL244:
	.thumb
	.syntax unified
.LBE164:
	.loc 1 428 0
	add	r8, r0, r7
.LVL245:
	str	r7, [sp, #48]
	.loc 1 430 0
	ldr	r7, [sp, #180]
.LVL246:
	rsb	r9, r7, r8, lsl #1
.LVL247:
.LBB165:
	.loc 1 436 0
	ldr	r7, [sp, #136]
.LBE165:
	.loc 1 432 0
	rsb	r2, r2, r9, lsl #1
.LVL248:
	.loc 1 434 0
	str	r2, [r5, #32]
.LBB166:
	.loc 1 436 0
	ldr	r5, [sp, #140]
	subs	r5, r7, r5
	.syntax unified
@ 436 "synth.c" 1
	smull	r7, ip, r5, r10
	movs	r7, r7, lsr #28
	adc	r5, r7, ip, lsl #4
@ 0 "" 2
.LVL249:
	.thumb
	.syntax unified
.LBE166:
.LBB167:
	.loc 1 440 0
	ldr	r7, [sp, #176]
.LBE167:
	.loc 1 436 0
	rsb	r2, r2, r5, lsl #1
.LVL250:
.LBB168:
	.loc 1 440 0
	ldr	r5, [sp, #172]
.LVL251:
.LBE168:
	.loc 1 438 0
	str	r2, [r1, #64]
.LVL252:
.LBB169:
	.loc 1 440 0
	subs	r5, r5, r7
	.syntax unified
@ 440 "synth.c" 1
	smull	ip, r7, r5, r10
	movs	ip, ip, lsr #28
	adc	r5, ip, r7, lsl #4
@ 0 "" 2
.LVL253:
	.thumb
	.syntax unified
.LBE169:
.LBB170:
	.loc 1 446 0
	ldr	r7, [sp, #36]
.LBE170:
	.loc 1 440 0
	rsb	r5, r9, r5, lsl #1
.LVL254:
	.loc 1 442 0
	rsb	r2, r2, r5, lsl #1
.LVL255:
.LBB171:
	.loc 1 446 0
	subs	r4, r4, r7
.LVL256:
.LBE171:
	ldr	r7, [sp, #20]
.LBB172:
	.syntax unified
@ 446 "synth.c" 1
	smull	r9, ip, r4, r10
	movs	r9, r9, lsr #28
	adc	r4, r9, ip, lsl #4
@ 0 "" 2
.LVL257:
	.thumb
	.syntax unified
.LBE172:
	.loc 1 444 0
	str	r2, [r1, #192]
	.loc 1 446 0
	rsb	r4, r7, r4, lsl #1
.LVL258:
	rsb	r2, r2, r4, lsl #1
.LVL259:
.LBB173:
	.loc 1 450 0
	ldr	r4, [sp, #48]
.LBE173:
	.loc 1 448 0
	str	r2, [r1, #320]
.LBB174:
	.loc 1 450 0
	subs	r0, r0, r4
.LVL260:
	.syntax unified
@ 450 "synth.c" 1
	smull	r4, r7, r0, r10
	movs	r4, r4, lsr #28
	adc	r0, r4, r7, lsl #4
@ 0 "" 2
.LVL261:
	.thumb
	.syntax unified
.LBE174:
	rsb	r0, r8, r0, lsl #1
.LVL262:
.LBB175:
	.loc 1 453 0
	ldr	r4, [sp, #108]
.LBE175:
.LBB176:
	.loc 1 454 0
	ldr	r7, [sp, #120]
.LBE176:
	.loc 1 450 0
	rsb	r0, r5, r0, lsl #1
.LBB177:
	.loc 1 453 0
	ldr	r5, [sp, #112]
.LVL263:
.LBE177:
	.loc 1 450 0
	rsb	r0, r2, r0, lsl #1
.LBB178:
	.loc 1 453 0
	subs	r5, r4, r5
.LBE178:
.LBB179:
	.loc 1 454 0
	ldr	r4, [sp, #116]
.LBE179:
	.loc 1 449 0
	str	r0, [r1, #448]
.LBB180:
	.loc 1 453 0
	.syntax unified
@ 453 "synth.c" 1
	smull	r2, r0, r5, fp
	movs	r2, r2, lsr #28
	adc	r5, r2, r0, lsl #4
@ 0 "" 2
.LVL264:
	.thumb
	.syntax unified
.LBE180:
.LBB181:
	.loc 1 454 0
	subs	r2, r4, r7
.LBE181:
	.loc 1 457 0
	ldr	r7, [sp, #192]
.LBB182:
	.loc 1 454 0
	.syntax unified
@ 454 "synth.c" 1
	smull	r0, r4, r2, lr
	movs	r0, r0, lsr #28
	adc	r2, r0, r4, lsl #4
@ 0 "" 2
.LVL265:
	.thumb
	.syntax unified
.LBE182:
	.loc 1 455 0
	add	ip, r5, r2
.LVL266:
.LBB183:
	.loc 1 461 0
	ldr	r0, [sp, #148]
.LBE183:
.LBB184:
	.loc 1 502 0
	subs	r5, r5, r2
.LVL267:
.LBE184:
	.loc 1 457 0
	rsb	lr, r7, ip, lsl #1
.LVL268:
	.loc 1 459 0
	ldr	r7, [sp, #28]
	rsb	r4, r7, lr, lsl #1
.LVL269:
.LBB185:
	.loc 1 461 0
	ldr	r7, [sp, #144]
.LBE185:
	.loc 1 463 0
	rsb	r3, r3, r4, lsl #1
.LVL270:
.LBB186:
	.loc 1 461 0
	subs	r7, r7, r0
	.syntax unified
@ 461 "synth.c" 1
	smull	r0, r8, r7, r10
	movs	r0, r0, lsr #28
	adc	r7, r0, r8, lsl #4
@ 0 "" 2
.LVL271:
	.thumb
	.syntax unified
.LBE186:
	.loc 1 465 0
	ldr	r0, [sp]
	.loc 1 461 0
	rsb	r7, r4, r7, lsl #1
.LVL272:
	.loc 1 465 0
	ldr	r4, [sp, #56]
.LVL273:
	str	r3, [r4, r0, lsl #2]
.LVL274:
.LBB187:
	.loc 1 467 0
	ldr	r0, [sp, #128]
	ldr	r4, [sp, #132]
	subs	r4, r0, r4
	.syntax unified
@ 467 "synth.c" 1
	smull	r0, r8, r4, r10
	movs	r0, r0, lsr #28
	adc	r4, r0, r8, lsl #4
@ 0 "" 2
.LVL275:
	.thumb
	.syntax unified
.LBE187:
.LBB188:
	.loc 1 479 0
	ldr	r0, [sp, #188]
.LBE188:
	.loc 1 467 0
	rsb	r4, r3, r4, lsl #1
.LVL276:
.LBB189:
	.loc 1 479 0
	ldr	r3, [sp, #184]
.LVL277:
.LBE189:
	.loc 1 469 0
	str	r4, [r1, #32]
.LVL278:
	.loc 1 471 0
	rsb	r4, r4, r7, lsl #1
.LVL279:
.LBB190:
	.loc 1 479 0
	subs	r3, r3, r0
.LBE190:
	.loc 1 473 0
	str	r4, [r1, #96]
.LBB191:
	.loc 1 479 0
	.syntax unified
@ 479 "synth.c" 1
	smull	r0, r8, r3, r10
	movs	r0, r0, lsr #28
	adc	r3, r0, r8, lsl #4
@ 0 "" 2
	.thumb
	.syntax unified
.LBE191:
.LBB192:
	.loc 1 487 0
	ldr	r0, [sp, #4]
.LBE192:
	.loc 1 479 0
	rsb	lr, lr, r3, lsl #1
.LVL280:
.LBB193:
	.loc 1 487 0
	ldr	r3, [sp, #124]
.LBE193:
	.loc 1 475 0
	rsb	r4, r4, r6, lsl #1
.LVL281:
	.loc 1 481 0
	rsb	r7, r7, lr, lsl #1
.LVL282:
	.loc 1 477 0
	str	r4, [r1, #160]
.LBB194:
	.loc 1 487 0
	subs	r0, r0, r3
.LBE194:
	.loc 1 483 0
	rsb	r4, r4, r7, lsl #1
.LVL283:
.LBB195:
	.loc 1 487 0
	.syntax unified
@ 487 "synth.c" 1
	smull	r3, r8, r0, r10
	movs	r3, r3, lsr #28
	adc	r0, r3, r8, lsl #4
@ 0 "" 2
.LVL284:
	.thumb
	.syntax unified
.LBE195:
	ldr	r3, [sp, #16]
	.loc 1 485 0
	str	r4, [r1, #224]
	.loc 1 487 0
	rsb	r0, r3, r0, lsl #1
.LVL285:
.LBB196:
	.loc 1 491 0
	ldr	r3, [sp, #8]
.LBE196:
	.loc 1 487 0
	rsb	r4, r4, r0, lsl #1
.LVL286:
.LBB197:
	.loc 1 491 0
	ldr	r0, [sp, #40]
.LBE197:
	.loc 1 489 0
	str	r4, [r1, #288]
.LBB198:
	.loc 1 491 0
	subs	r0, r0, r3
	.syntax unified
@ 491 "synth.c" 1
	smull	r3, r8, r0, r10
	movs	r3, r3, lsr #28
	adc	r0, r3, r8, lsl #4
@ 0 "" 2
.LVL287:
	.thumb
	.syntax unified
.LBE198:
	ldr	r3, [sp, #24]
	rsb	r0, r3, r0, lsl #1
.LVL288:
.LBB199:
	.loc 1 497 0
	ldr	r3, [sp, #12]
.LBE199:
	.loc 1 491 0
	rsb	r7, r7, r0, lsl #1
.LVL289:
.LBB200:
	.loc 1 497 0
	ldr	r0, [sp, #44]
.LBE200:
	.loc 1 493 0
	rsb	r4, r4, r7, lsl #1
.LVL290:
.LBB201:
	.loc 1 497 0
	subs	r3, r3, r0
	.syntax unified
@ 497 "synth.c" 1
	smull	r0, r8, r3, r10
	movs	r0, r0, lsr #28
	adc	r3, r0, r8, lsl #4
@ 0 "" 2
.LVL291:
	.thumb
	.syntax unified
.LBE201:
	ldr	r0, [sp, #32]
	.loc 1 495 0
	str	r4, [r1, #352]
	.loc 1 497 0
	rsb	r3, r0, r3, lsl #1
.LVL292:
	.loc 1 498 0
	rsb	r6, r6, r3, lsl #1
.LVL293:
.LBB202:
	.loc 1 502 0
	.syntax unified
@ 502 "synth.c" 1
	smull	r3, r2, r5, r10
	movs	r3, r3, lsr #28
	adc	r5, r3, r2, lsl #4
@ 0 "" 2
.LVL294:
	.thumb
	.syntax unified
.LBE202:
	rsb	r5, ip, r5, lsl #1
	.loc 1 497 0
	rsb	r4, r4, r6, lsl #1
.LVL295:
	.loc 1 502 0
	rsb	lr, lr, r5, lsl #1
.LVL296:
	.loc 1 500 0
	str	r4, [r1, #416]
	.loc 1 502 0
	rsb	r7, r7, lr, lsl #1
.LVL297:
	rsb	r4, r4, r7, lsl #1
.LVL298:
	.loc 1 501 0
	str	r4, [r1, #480]
	.loc 1 512 0
	add	sp, sp, #204
	.cfi_def_cfa_offset 36
.LVL299:
	@ sp needed
	pop	{r4, r5, r6, r7, r8, r9, r10, fp, pc}
	.cfi_endproc
.LFE2:
	.size	dct32, .-dct32
	.align	1
	.syntax unified
	.thumb
	.thumb_func
	.fpu vfpv3-d16
	.type	synth_full, %function
synth_full:
.LFB3:
	.loc 1 560 0
	.cfi_startproc
	@ args = 0, pretend = 0, frame = 64
	@ frame_needed = 0, uses_anonymous_args = 0
.LVL300:
	.loc 1 569 0
	cmp	r2, #0
	beq	.L13
	.loc 1 560 0
	push	{r4, r5, r6, r7, r8, r9, r10, fp, lr}
	.cfi_def_cfa_offset 36
	.cfi_offset 4, -36
	.cfi_offset 5, -32
	.cfi_offset 6, -28
	.cfi_offset 7, -24
	.cfi_offset 8, -20
	.cfi_offset 9, -16
	.cfi_offset 10, -12
	.cfi_offset 11, -8
	.cfi_offset 14, -4
	sub	sp, sp, #68
	.cfi_def_cfa_offset 104
	str	r3, [sp, #44]
	add	r3, r1, #48
.LVL301:
	str	r3, [sp, #52]
	add	r3, r0, #4096
	adds	r3, r3, #16
	str	r2, [sp, #60]
	str	r3, [sp, #56]
	.loc 1 569 0
	movs	r3, #0
	str	r3, [sp, #36]
	str	r3, [sp, #40]
	.loc 1 590 0
	ldr	r3, .L17
	str	r0, [sp, #12]
.LPIC8:
	add	r3, pc
	str	r3, [sp, #8]
	.loc 1 671 0
	ldr	r3, .L17+4
.LPIC14:
	add	r3, pc
	add	r3, r3, #1920
	str	r3, [sp, #48]
.LVL302:
.L8:
	.loc 1 572 0
	ldr	r3, [sp, #12]
	add	r3, r3, #4096
	ldr	r3, [r3]
	str	r3, [sp]
.LVL303:
	.loc 1 575 0
	ldr	r3, [sp, #44]
.LVL304:
	cmp	r3, #0
	beq	.L5
	ldr	r3, [sp, #56]
	str	r3, [sp, #4]
	ldr	r3, [sp, #52]
	str	r3, [sp, #16]
	movs	r3, #0
	str	r3, [sp, #28]
	ldr	r3, [sp, #36]
	adds	r3, r3, #2
	str	r3, [sp, #24]
.LVL305:
.L7:
	.loc 1 577 0
	ldr	r7, [sp]
	ldr	r3, [sp, #36]
	ldr	r5, [sp, #12]
	and	r6, r7, #1
	.loc 1 576 0
	ldr	r0, [sp, #16]
	.loc 1 577 0
	adds	r2, r6, r3
	ldr	r3, [sp, #24]
	.loc 1 576 0
	lsrs	r1, r7, #1
	.loc 1 577 0
	add	r4, r5, r2, lsl #9
	adds	r3, r6, r3
	.loc 1 576 0
	add	r3, r5, r3, lsl #9
	mov	r2, r4
	bl	dct32(PLT)
.LVL306:
	.loc 1 586 0
	ldr	r3, [sp, #24]
	.loc 1 585 0
	eor	r0, r6, #1
.LVL307:
	.loc 1 586 0
	mov	r2, r5
	.loc 1 580 0
	str	r7, [sp]
.LVL308:
	.loc 1 586 0
	add	fp, r0, r3
	add	fp, r5, fp, lsl #9
.LVL309:
	.loc 1 580 0
	subs	r5, r7, #1
.LVL310:
	and	r5, r5, #14
	orr	r5, r5, #1
.LVL311:
	.loc 1 591 0
	mov	r7, r2
.LVL312:
	.loc 1 590 0
	lsls	r3, r5, #2
	.loc 1 591 0
	str	r7, [sp, #12]
	.loc 1 590 0
	mov	r1, r3
	ldr	r3, [sp, #8]
	str	r1, [sp, #20]
	adds	r1, r3, r1
.LVL313:
	.loc 1 591 0
	ldr	r3, [sp, #40]
	lsls	r3, r3, #2
	add	r0, r0, r3
.LVL314:
	.loc 1 602 0
	add	r6, r6, r3
.LVL315:
	.loc 1 591 0
	lsls	r0, r0, #9
	.loc 1 602 0
	lsls	r6, r6, #9
	.loc 1 591 0
	add	r2, r2, r0
.LVL316:
	ldr	r0, [r7, r0]
	ldr	r7, [sp, #8]
	ldr	r5, [r7, r5, lsl #2]
.LVL317:
	.syntax unified
@ 591 "synth.c" 1
	smull	r7, ip, r0, r5
@ 0 "" 2
.LVL318:
	.loc 1 592 0
	.thumb
	.syntax unified
	ldr	r0, [r2, #4]
	ldr	r5, [r1, #56]
	.syntax unified
@ 592 "synth.c" 1
	smlal	r7, ip, r0, r5
@ 0 "" 2
.LVL319:
	.loc 1 593 0
	.thumb
	.syntax unified
	ldr	r0, [r2, #8]
	ldr	r5, [r1, #48]
	.syntax unified
@ 593 "synth.c" 1
	smlal	r7, ip, r0, r5
@ 0 "" 2
.LVL320:
	.loc 1 594 0
	.thumb
	.syntax unified
	ldr	r0, [r2, #12]
	ldr	r5, [r1, #40]
	.syntax unified
@ 594 "synth.c" 1
	smlal	r7, ip, r0, r5
@ 0 "" 2
.LVL321:
	.loc 1 595 0
	.thumb
	.syntax unified
	ldr	r0, [r2, #16]
	ldr	r5, [r1, #32]
	.syntax unified
@ 595 "synth.c" 1
	smlal	r7, ip, r0, r5
@ 0 "" 2
.LVL322:
	.loc 1 596 0
	.thumb
	.syntax unified
	ldr	r0, [r2, #20]
	ldr	r5, [r1, #24]
	.syntax unified
@ 596 "synth.c" 1
	smlal	r7, ip, r0, r5
@ 0 "" 2
.LVL323:
	.loc 1 597 0
	.thumb
	.syntax unified
	ldr	r0, [r2, #24]
	ldr	r5, [r1, #16]
	.syntax unified
@ 597 "synth.c" 1
	smlal	r7, ip, r0, r5
@ 0 "" 2
.LVL324:
	.loc 1 579 0
	.thumb
	.syntax unified
	ldr	r5, [sp]
	.loc 1 598 0
	ldr	r0, [r2, #28]
	ldr	r2, [r1, #8]
.LVL325:
	.syntax unified
@ 598 "synth.c" 1
	smlal	r7, ip, r0, r2
@ 0 "" 2
.LVL326:
	.loc 1 602 0
	.thumb
	.syntax unified
	ldr	r2, [sp, #12]
	.loc 1 579 0
	bic	lr, r5, #1
.LVL327:
	.loc 1 601 0
	ldr	r5, [sp, #8]
	lsl	r0, lr, #2
	.loc 1 599 0
	.syntax unified
@ 599 "synth.c" 1
	rsbs	r7, r7, #0
	rsc	ip, ip, #0
@ 0 "" 2
.LVL328:
	.loc 1 602 0
	.thumb
	.syntax unified
	adds	r3, r2, r6
	ldr	r2, [r2, r6]
	ldr	r6, [sp, #8]
	.loc 1 601 0
	add	r5, r5, r0
.LVL329:
	.loc 1 602 0
	ldr	r6, [r6, lr, lsl #2]
	.syntax unified
@ 602 "synth.c" 1
	smlal	r7, ip, r2, r6
@ 0 "" 2
.LVL330:
	.loc 1 603 0
	.thumb
	.syntax unified
	ldr	r2, [r3, #4]
	ldr	r6, [r5, #56]
	.syntax unified
@ 603 "synth.c" 1
	smlal	r7, ip, r2, r6
@ 0 "" 2
.LVL331:
	.loc 1 604 0
	.thumb
	.syntax unified
	ldr	r2, [r3, #8]
	ldr	r6, [r5, #48]
	.syntax unified
@ 604 "synth.c" 1
	smlal	r7, ip, r2, r6
@ 0 "" 2
.LVL332:
	.loc 1 605 0
	.thumb
	.syntax unified
	ldr	r2, [r3, #12]
	ldr	r6, [r5, #40]
	.syntax unified
@ 605 "synth.c" 1
	smlal	r7, ip, r2, r6
@ 0 "" 2
.LVL333:
	.loc 1 606 0
	.thumb
	.syntax unified
	ldr	r2, [r3, #16]
	ldr	r6, [r5, #32]
	.syntax unified
@ 606 "synth.c" 1
	smlal	r7, ip, r2, r6
@ 0 "" 2
.LVL334:
	.loc 1 607 0
	.thumb
	.syntax unified
	ldr	r2, [r3, #20]
	ldr	r6, [r5, #24]
	.syntax unified
@ 607 "synth.c" 1
	smlal	r7, ip, r2, r6
@ 0 "" 2
.LVL335:
	.loc 1 608 0
	.thumb
	.syntax unified
	ldr	r2, [r3, #24]
	ldr	r6, [r5, #16]
	.syntax unified
@ 608 "synth.c" 1
	smlal	r7, ip, r2, r6
@ 0 "" 2
.LVL336:
	.loc 1 609 0
	.thumb
	.syntax unified
	ldr	r2, [r3, #28]
	ldr	r3, [r5, #8]
	.syntax unified
@ 609 "synth.c" 1
	smlal	r7, ip, r2, r3
@ 0 "" 2
.LVL337:
	.loc 1 611 0
	.thumb
	.syntax unified
	ldr	r2, [sp, #4]
.LBB203:
	.syntax unified
@ 611 "synth.c" 1
	movs	r3, r7, lsr #16
	adc	r3, r3, ip, lsl #16
@ 0 "" 2
	.thumb
	.syntax unified
	ldr	r6, [sp, #8]
.LBE203:
	mov	r7, r2
.LVL338:
	str	r3, [r2, #-4]
	str	r2, [sp, #32]
.LVL339:
	add	lr, r2, #120
.LVL340:
	mov	r2, r4
.LVL341:
	ldr	r4, [sp, #20]
.LVL342:
	add	r3, fp, #32
.LVL343:
	subs	r0, r6, r0
	add	r10, r7, #60
	mov	ip, r7
.LVL344:
	subs	r4, r6, r4
.LVL345:
.L6:
	.loc 1 622 0 discriminator 3
	ldr	r6, [r3, #-32]
	adds	r2, r2, #32
	ldr	r7, [r1, #128]
	adds	r3, r3, #32
.LVL346:
	.syntax unified
@ 622 "synth.c" 1
	smull	r8, r9, r6, r7
@ 0 "" 2
.LVL347:
	.loc 1 623 0 discriminator 3
	.thumb
	.syntax unified
	ldr	r6, [r3, #-60]
	adds	r1, r1, #128
.LVL348:
	ldr	r7, [r1, #56]
	adds	r0, r0, #128
	.syntax unified
@ 623 "synth.c" 1
	smlal	r8, r9, r6, r7
@ 0 "" 2
.LVL349:
	.loc 1 624 0 discriminator 3
	.thumb
	.syntax unified
	ldr	r6, [r3, #-56]
	adds	r4, r4, #128
	ldr	r7, [r1, #48]
	.syntax unified
@ 624 "synth.c" 1
	smlal	r8, r9, r6, r7
@ 0 "" 2
.LVL350:
	.loc 1 625 0 discriminator 3
	.thumb
	.syntax unified
	ldr	r6, [r3, #-52]
	ldr	r7, [r1, #40]
	.syntax unified
@ 625 "synth.c" 1
	smlal	r8, r9, r6, r7
@ 0 "" 2
.LVL351:
	.loc 1 626 0 discriminator 3
	.thumb
	.syntax unified
	ldr	r6, [r3, #-48]
	ldr	r7, [r1, #32]
	.syntax unified
@ 626 "synth.c" 1
	smlal	r8, r9, r6, r7
@ 0 "" 2
.LVL352:
	.loc 1 627 0 discriminator 3
	.thumb
	.syntax unified
	ldr	r6, [r3, #-44]
	ldr	r7, [r1, #24]
	.syntax unified
@ 627 "synth.c" 1
	smlal	r8, r9, r6, r7
@ 0 "" 2
.LVL353:
	.loc 1 628 0 discriminator 3
	.thumb
	.syntax unified
	ldr	r6, [r3, #-40]
	ldr	r7, [r1, #16]
	.syntax unified
@ 628 "synth.c" 1
	smlal	r8, r9, r6, r7
@ 0 "" 2
.LVL354:
	.loc 1 629 0 discriminator 3
	.thumb
	.syntax unified
	ldr	r6, [r3, #-36]
	ldr	r7, [r1, #8]
	.syntax unified
@ 629 "synth.c" 1
	smlal	r8, r9, r6, r7
@ 0 "" 2
.LVL355:
	.loc 1 633 0 discriminator 3
	.thumb
	.syntax unified
	ldr	r6, [r2, #28]
	ldr	r7, [r5, #136]
	.loc 1 630 0 discriminator 3
	.syntax unified
@ 630 "synth.c" 1
	rsbs	r8, r8, #0
	rsc	r9, r9, #0
@ 0 "" 2
.LVL356:
	.loc 1 633 0 discriminator 3
@ 633 "synth.c" 1
	smlal	r8, r9, r6, r7
@ 0 "" 2
.LVL357:
	.loc 1 634 0 discriminator 3
	.thumb
	.syntax unified
	ldr	r6, [r2, #24]
	ldr	r7, [r5, #144]
	.syntax unified
@ 634 "synth.c" 1
	smlal	r8, r9, r6, r7
@ 0 "" 2
.LVL358:
	.loc 1 635 0 discriminator 3
	.thumb
	.syntax unified
	ldr	r6, [r2, #20]
	ldr	r7, [r5, #152]
	.syntax unified
@ 635 "synth.c" 1
	smlal	r8, r9, r6, r7
@ 0 "" 2
.LVL359:
	.loc 1 636 0 discriminator 3
	.thumb
	.syntax unified
	ldr	r6, [r2, #16]
	ldr	r7, [r5, #160]
	.syntax unified
@ 636 "synth.c" 1
	smlal	r8, r9, r6, r7
@ 0 "" 2
.LVL360:
	.loc 1 637 0 discriminator 3
	.thumb
	.syntax unified
	ldr	r6, [r2, #12]
	ldr	r7, [r5, #168]
	.syntax unified
@ 637 "synth.c" 1
	smlal	r8, r9, r6, r7
@ 0 "" 2
.LVL361:
	.loc 1 638 0 discriminator 3
	.thumb
	.syntax unified
	ldr	r6, [r2, #8]
	ldr	r7, [r5, #176]
	.syntax unified
@ 638 "synth.c" 1
	smlal	r8, r9, r6, r7
@ 0 "" 2
.LVL362:
	.loc 1 639 0 discriminator 3
	.thumb
	.syntax unified
	ldr	r6, [r2, #4]
	ldr	r7, [r5, #184]
	.syntax unified
@ 639 "synth.c" 1
	smlal	r8, r9, r6, r7
@ 0 "" 2
.LVL363:
	.loc 1 640 0 discriminator 3
	.thumb
	.syntax unified
	ldr	r6, [r2]
	ldr	r7, [r5, #128]!
	.syntax unified
@ 640 "synth.c" 1
	smlal	r8, r9, r6, r7
@ 0 "" 2
.LVL364:
	.thumb
	.syntax unified
.LBB204:
	.loc 1 642 0 discriminator 3
	.syntax unified
@ 642 "synth.c" 1
	movs	r6, r8, lsr #16
	adc	r6, r6, r9, lsl #16
@ 0 "" 2
.LVL365:
	.thumb
	.syntax unified
.LBE204:
	str	r6, [ip], #4
.LVL366:
	.loc 1 645 0 discriminator 3
	ldr	r6, [r2]
.LVL367:
	ldr	r7, [r0, #60]
	.syntax unified
@ 645 "synth.c" 1
	smull	r8, r9, r6, r7
@ 0 "" 2
.LVL368:
	.loc 1 646 0 discriminator 3
	.thumb
	.syntax unified
	ldr	r6, [r2, #4]
	ldr	r7, [r0, #68]
	.syntax unified
@ 646 "synth.c" 1
	smlal	r8, r9, r6, r7
@ 0 "" 2
.LVL369:
	.loc 1 647 0 discriminator 3
	.thumb
	.syntax unified
	ldr	r6, [r2, #8]
	ldr	r7, [r0, #76]
	.syntax unified
@ 647 "synth.c" 1
	smlal	r8, r9, r6, r7
@ 0 "" 2
.LVL370:
	.loc 1 648 0 discriminator 3
	.thumb
	.syntax unified
	ldr	r6, [r2, #12]
	ldr	r7, [r0, #84]
	.syntax unified
@ 648 "synth.c" 1
	smlal	r8, r9, r6, r7
@ 0 "" 2
.LVL371:
	.loc 1 649 0 discriminator 3
	.thumb
	.syntax unified
	ldr	r6, [r2, #16]
	ldr	r7, [r0, #92]
	.syntax unified
@ 649 "synth.c" 1
	smlal	r8, r9, r6, r7
@ 0 "" 2
.LVL372:
	.loc 1 650 0 discriminator 3
	.thumb
	.syntax unified
	ldr	r6, [r2, #20]
	ldr	r7, [r0, #100]
	.syntax unified
@ 650 "synth.c" 1
	smlal	r8, r9, r6, r7
@ 0 "" 2
.LVL373:
	.loc 1 651 0 discriminator 3
	.thumb
	.syntax unified
	ldr	r6, [r2, #24]
	ldr	r7, [r0, #108]
	.syntax unified
@ 651 "synth.c" 1
	smlal	r8, r9, r6, r7
@ 0 "" 2
.LVL374:
	.loc 1 652 0 discriminator 3
	.thumb
	.syntax unified
	ldr	r6, [r2, #28]
	ldr	r7, [r0, #116]
	.syntax unified
@ 652 "synth.c" 1
	smlal	r8, r9, r6, r7
@ 0 "" 2
.LVL375:
	.loc 1 655 0 discriminator 3
	.thumb
	.syntax unified
	ldr	r6, [r3, #-36]
	ldr	r7, [r4, #116]
	.syntax unified
@ 655 "synth.c" 1
	smlal	r8, r9, r6, r7
@ 0 "" 2
.LVL376:
	.loc 1 656 0 discriminator 3
	.thumb
	.syntax unified
	ldr	r6, [r3, #-40]
	ldr	r7, [r4, #108]
	.syntax unified
@ 656 "synth.c" 1
	smlal	r8, r9, r6, r7
@ 0 "" 2
.LVL377:
	.loc 1 657 0 discriminator 3
	.thumb
	.syntax unified
	ldr	r6, [r3, #-44]
	ldr	r7, [r4, #100]
	.syntax unified
@ 657 "synth.c" 1
	smlal	r8, r9, r6, r7
@ 0 "" 2
.LVL378:
	.loc 1 658 0 discriminator 3
	.thumb
	.syntax unified
	ldr	r6, [r3, #-48]
	ldr	r7, [r4, #92]
	.syntax unified
@ 658 "synth.c" 1
	smlal	r8, r9, r6, r7
@ 0 "" 2
.LVL379:
	.loc 1 659 0 discriminator 3
	.thumb
	.syntax unified
	ldr	r6, [r3, #-52]
	ldr	r7, [r4, #84]
	.syntax unified
@ 659 "synth.c" 1
	smlal	r8, r9, r6, r7
@ 0 "" 2
.LVL380:
	.loc 1 660 0 discriminator 3
	.thumb
	.syntax unified
	ldr	r6, [r3, #-56]
	ldr	r7, [r4, #76]
	.syntax unified
@ 660 "synth.c" 1
	smlal	r8, r9, r6, r7
@ 0 "" 2
.LVL381:
	.loc 1 661 0 discriminator 3
	.thumb
	.syntax unified
	ldr	r6, [r3, #-60]
	ldr	r7, [r4, #68]
	.syntax unified
@ 661 "synth.c" 1
	smlal	r8, r9, r6, r7
@ 0 "" 2
.LVL382:
	.loc 1 662 0 discriminator 3
	.thumb
	.syntax unified
	ldr	r6, [r3, #-64]
	ldr	r7, [r4, #60]
	.syntax unified
@ 662 "synth.c" 1
	smlal	r8, r9, r6, r7
@ 0 "" 2
.LVL383:
	.thumb
	.syntax unified
.LBB205:
	.loc 1 664 0 discriminator 3
	.syntax unified
@ 664 "synth.c" 1
	movs	r6, r8, lsr #16
	adc	r6, r6, r9, lsl #16
@ 0 "" 2
.LVL384:
	.thumb
	.syntax unified
.LBE205:
	.loc 1 615 0 discriminator 3
	cmp	ip, r10
	.loc 1 664 0 discriminator 3
	str	r6, [lr], #-4
.LVL385:
	.loc 1 615 0 discriminator 3
	bne	.L6
.LVL386:
	.loc 1 671 0 discriminator 2
	ldr	r3, [sp, #20]
	ldr	r1, [sp, #48]
	.loc 1 672 0 discriminator 2
	ldr	r2, [fp, #480]
	.loc 1 671 0 discriminator 2
	adds	r3, r3, #128
	adds	r0, r1, r3
.LVL387:
	.loc 1 672 0 discriminator 2
	ldr	r1, [r1, r3]
	.syntax unified
@ 672 "synth.c" 1
	smull	r3, r4, r2, r1
@ 0 "" 2
.LVL388:
	.loc 1 673 0 discriminator 2
	.thumb
	.syntax unified
	ldr	r2, [fp, #484]
	ldr	r1, [r0, #56]
	.syntax unified
@ 673 "synth.c" 1
	smlal	r3, r4, r2, r1
@ 0 "" 2
.LVL389:
	.loc 1 674 0 discriminator 2
	.thumb
	.syntax unified
	ldr	r2, [fp, #488]
	ldr	r1, [r0, #48]
	.syntax unified
@ 674 "synth.c" 1
	smlal	r3, r4, r2, r1
@ 0 "" 2
.LVL390:
	.loc 1 675 0 discriminator 2
	.thumb
	.syntax unified
	ldr	r2, [fp, #492]
	ldr	r1, [r0, #40]
	.syntax unified
@ 675 "synth.c" 1
	smlal	r3, r4, r2, r1
@ 0 "" 2
.LVL391:
	.loc 1 676 0 discriminator 2
	.thumb
	.syntax unified
	ldr	r2, [fp, #496]
	ldr	r1, [r0, #32]
	.syntax unified
@ 676 "synth.c" 1
	smlal	r3, r4, r2, r1
@ 0 "" 2
.LVL392:
	.loc 1 677 0 discriminator 2
	.thumb
	.syntax unified
	ldr	r2, [fp, #500]
	ldr	r1, [r0, #24]
	.syntax unified
@ 677 "synth.c" 1
	smlal	r3, r4, r2, r1
@ 0 "" 2
.LVL393:
	.loc 1 678 0 discriminator 2
	.thumb
	.syntax unified
	ldr	r2, [fp, #504]
	ldr	r1, [r0, #16]
	.syntax unified
@ 678 "synth.c" 1
	smlal	r3, r4, r2, r1
@ 0 "" 2
.LVL394:
	.loc 1 679 0 discriminator 2
	.thumb
	.syntax unified
	ldr	r2, [fp, #508]
	ldr	r1, [r0, #8]
	.syntax unified
@ 679 "synth.c" 1
	smlal	r3, r4, r2, r1
@ 0 "" 2
.LVL395:
	.thumb
	.syntax unified
.LBB206:
	.loc 1 681 0 discriminator 2
	.syntax unified
@ 681 "synth.c" 1
	movs	r2, r3, lsr #16
	adc	r2, r2, r4, lsl #16
@ 0 "" 2
.LVL396:
	.thumb
	.syntax unified
.LBE206:
	ldr	r3, [sp, #32]
.LVL397:
	negs	r2, r2
.LVL398:
	str	r2, [r3, #60]
.LVL399:
	ldr	r2, [sp, #16]
.LVL400:
	.loc 1 684 0 discriminator 2
	ldr	r3, [sp]
.LVL401:
	adds	r2, r2, #128
	str	r2, [sp, #16]
	adds	r3, r3, #1
	ldr	r2, [sp, #4]
	and	r3, r3, #15
	str	r3, [sp]
.LVL402:
	.loc 1 575 0 discriminator 2
	ldr	r3, [sp, #28]
.LVL403:
	adds	r2, r2, #128
	str	r2, [sp, #4]
	ldr	r2, [sp, #44]
	adds	r3, r3, #1
	str	r3, [sp, #28]
.LVL404:
	cmp	r2, r3
	bne	.L7
.LVL405:
.L5:
	ldr	r2, [sp, #52]
	.loc 1 569 0 discriminator 2
	ldr	r3, [sp, #40]
	add	r2, r2, #4608
	str	r2, [sp, #52]
	adds	r3, r3, #1
	ldr	r2, [sp, #56]
	str	r3, [sp, #40]
.LVL406:
	add	r2, r2, #4608
	str	r2, [sp, #56]
	ldr	r2, [sp, #36]
	adds	r2, r2, #4
	str	r2, [sp, #36]
	ldr	r2, [sp, #60]
	cmp	r2, r3
	bne	.L8
	.loc 1 687 0
	add	sp, sp, #68
	.cfi_def_cfa_offset 36
.LVL407:
	@ sp needed
	pop	{r4, r5, r6, r7, r8, r9, r10, fp, pc}
.LVL408:
.L13:
	.cfi_def_cfa_offset 0
	.cfi_restore 4
	.cfi_restore 5
	.cfi_restore 6
	.cfi_restore 7
	.cfi_restore 8
	.cfi_restore 9
	.cfi_restore 10
	.cfi_restore 11
	.cfi_restore 14
	bx	lr
.L18:
	.align	2
.L17:
	.word	.LANCHOR0-(.LPIC8+4)
	.word	.LANCHOR0-(.LPIC14+4)
	.cfi_endproc
.LFE3:
	.size	synth_full, .-synth_full
	.align	1
	.syntax unified
	.thumb
	.thumb_func
	.fpu vfpv3-d16
	.type	synth_half, %function
synth_half:
.LFB4:
	.loc 1 697 0
	.cfi_startproc
	@ args = 0, pretend = 0, frame = 56
	@ frame_needed = 0, uses_anonymous_args = 0
.LVL409:
	.loc 1 706 0
	cmp	r2, #0
	beq	.L30
	.loc 1 697 0
	push	{r4, r5, r6, r7, r8, r9, r10, fp, lr}
	.cfi_def_cfa_offset 36
	.cfi_offset 4, -36
	.cfi_offset 5, -32
	.cfi_offset 6, -28
	.cfi_offset 7, -24
	.cfi_offset 8, -20
	.cfi_offset 9, -16
	.cfi_offset 10, -12
	.cfi_offset 11, -8
	.cfi_offset 14, -4
	sub	sp, sp, #60
	.cfi_def_cfa_offset 96
	str	r3, [sp, #36]
	add	r3, r0, #4096
.LVL410:
	adds	r3, r3, #12
	str	r3, [sp, #44]
	add	r3, r1, #48
	str	r3, [sp, #48]
	.loc 1 706 0
	movs	r3, #0
	str	r3, [sp, #28]
	str	r3, [sp, #32]
	.loc 1 727 0
	ldr	r3, .L35
	str	r2, [sp, #52]
	str	r0, [sp, #8]
.LPIC15:
	add	r3, pc
	str	r3, [sp, #4]
	.loc 1 810 0
	ldr	r3, .L35+4
.LPIC21:
	add	r3, pc
	add	r3, r3, #1920
	str	r3, [sp, #40]
	b	.L26
.LVL411:
.L23:
	adds	r2, r2, #32
.LVL412:
	adds	r3, r3, #32
	adds	r0, r0, #128
	adds	r1, r1, #128
	adds	r5, r5, #128
	adds	r4, r4, #128
.LVL413:
.L22:
	.loc 1 752 0 discriminator 2
	add	ip, ip, #1
.LVL414:
	cmp	ip, #16
	beq	.L33
	.loc 1 758 0
	tst	ip, #1
	bne	.L23
.LVL415:
	.loc 1 760 0
	ldr	r6, [r2, #32]
	.loc 1 802 0
	sub	r9, r9, #4
.LVL416:
	.loc 1 760 0
	ldr	r7, [r0, #256]
	.loc 1 780 0
	add	r10, r10, #4
.LVL417:
	.loc 1 760 0
	.syntax unified
@ 760 "synth.c" 1
	smull	lr, r8, r6, r7
@ 0 "" 2
.LVL418:
	.loc 1 761 0
	.thumb
	.syntax unified
	ldr	r6, [r2, #36]
	ldr	r7, [r0, #312]
	.syntax unified
@ 761 "synth.c" 1
	smlal	lr, r8, r6, r7
@ 0 "" 2
.LVL419:
	.loc 1 762 0
	.thumb
	.syntax unified
	ldr	r6, [r2, #40]
	ldr	r7, [r0, #304]
	.syntax unified
@ 762 "synth.c" 1
	smlal	lr, r8, r6, r7
@ 0 "" 2
.LVL420:
	.loc 1 763 0
	.thumb
	.syntax unified
	ldr	r6, [r2, #44]
	ldr	r7, [r0, #296]
	.syntax unified
@ 763 "synth.c" 1
	smlal	lr, r8, r6, r7
@ 0 "" 2
.LVL421:
	.loc 1 764 0
	.thumb
	.syntax unified
	ldr	r6, [r2, #48]
	ldr	r7, [r0, #288]
	.syntax unified
@ 764 "synth.c" 1
	smlal	lr, r8, r6, r7
@ 0 "" 2
.LVL422:
	.loc 1 765 0
	.thumb
	.syntax unified
	ldr	r6, [r2, #52]
	ldr	r7, [r0, #280]
	.syntax unified
@ 765 "synth.c" 1
	smlal	lr, r8, r6, r7
@ 0 "" 2
.LVL423:
	.loc 1 766 0
	.thumb
	.syntax unified
	ldr	r6, [r2, #56]
	ldr	r7, [r0, #272]
	.syntax unified
@ 766 "synth.c" 1
	smlal	lr, r8, r6, r7
@ 0 "" 2
.LVL424:
	.loc 1 767 0
	.thumb
	.syntax unified
	ldr	r6, [r2, #60]
	ldr	r7, [r0, #264]
	.syntax unified
@ 767 "synth.c" 1
	smlal	lr, r8, r6, r7
@ 0 "" 2
.LVL425:
	.loc 1 771 0
	.thumb
	.syntax unified
	ldr	r6, [r3, #60]
	ldr	r7, [r1, #264]
	.loc 1 768 0
	.syntax unified
@ 768 "synth.c" 1
	rsbs	lr, lr, #0
	rsc	r8, r8, #0
@ 0 "" 2
.LVL426:
	.loc 1 771 0
@ 771 "synth.c" 1
	smlal	lr, r8, r6, r7
@ 0 "" 2
.LVL427:
	.loc 1 772 0
	.thumb
	.syntax unified
	ldr	r6, [r3, #56]
	ldr	r7, [r1, #272]
	.syntax unified
@ 772 "synth.c" 1
	smlal	lr, r8, r6, r7
@ 0 "" 2
.LVL428:
	.loc 1 773 0
	.thumb
	.syntax unified
	ldr	r6, [r3, #52]
	ldr	r7, [r1, #280]
	.syntax unified
@ 773 "synth.c" 1
	smlal	lr, r8, r6, r7
@ 0 "" 2
.LVL429:
	.loc 1 774 0
	.thumb
	.syntax unified
	ldr	r6, [r3, #48]
	ldr	r7, [r1, #288]
	.syntax unified
@ 774 "synth.c" 1
	smlal	lr, r8, r6, r7
@ 0 "" 2
.LVL430:
	.loc 1 775 0
	.thumb
	.syntax unified
	ldr	r6, [r3, #44]
	ldr	r7, [r1, #296]
	.syntax unified
@ 775 "synth.c" 1
	smlal	lr, r8, r6, r7
@ 0 "" 2
.LVL431:
	.loc 1 776 0
	.thumb
	.syntax unified
	ldr	r6, [r3, #40]
	ldr	r7, [r1, #304]
	.syntax unified
@ 776 "synth.c" 1
	smlal	lr, r8, r6, r7
@ 0 "" 2
.LVL432:
	.loc 1 777 0
	.thumb
	.syntax unified
	ldr	r6, [r3, #36]
	ldr	r7, [r1, #312]
	.syntax unified
@ 777 "synth.c" 1
	smlal	lr, r8, r6, r7
@ 0 "" 2
.LVL433:
	.loc 1 778 0
	.thumb
	.syntax unified
	ldr	r6, [r3, #32]
	ldr	r7, [r1, #256]
	.syntax unified
@ 778 "synth.c" 1
	smlal	lr, r8, r6, r7
@ 0 "" 2
.LVL434:
	.thumb
	.syntax unified
.LBB207:
	.loc 1 780 0
	.syntax unified
@ 780 "synth.c" 1
	movs	r6, lr, lsr #16
	adc	r6, r6, r8, lsl #16
@ 0 "" 2
.LVL435:
	.thumb
	.syntax unified
.LBE207:
	str	r6, [r10, #-4]
	.loc 1 783 0
	ldr	r6, [r2, #60]
.LVL436:
	ldr	r7, [r5, #372]
	.syntax unified
@ 783 "synth.c" 1
	smull	lr, r8, r6, r7
@ 0 "" 2
.LVL437:
	.loc 1 784 0
	.thumb
	.syntax unified
	ldr	r6, [r2, #56]
	ldr	r7, [r5, #364]
	.syntax unified
@ 784 "synth.c" 1
	smlal	lr, r8, r6, r7
@ 0 "" 2
.LVL438:
	.loc 1 785 0
	.thumb
	.syntax unified
	ldr	r6, [r2, #52]
	ldr	r7, [r5, #356]
	.syntax unified
@ 785 "synth.c" 1
	smlal	lr, r8, r6, r7
@ 0 "" 2
.LVL439:
	.loc 1 786 0
	.thumb
	.syntax unified
	ldr	r6, [r2, #48]
	ldr	r7, [r5, #348]
	.syntax unified
@ 786 "synth.c" 1
	smlal	lr, r8, r6, r7
@ 0 "" 2
.LVL440:
	.loc 1 787 0
	.thumb
	.syntax unified
	ldr	r6, [r2, #44]
	ldr	r7, [r5, #340]
	.syntax unified
@ 787 "synth.c" 1
	smlal	lr, r8, r6, r7
@ 0 "" 2
.LVL441:
	.loc 1 788 0
	.thumb
	.syntax unified
	ldr	r6, [r2, #40]
	ldr	r7, [r5, #332]
	.syntax unified
@ 788 "synth.c" 1
	smlal	lr, r8, r6, r7
@ 0 "" 2
.LVL442:
	.loc 1 789 0
	.thumb
	.syntax unified
	ldr	r6, [r2, #36]
	ldr	r7, [r5, #324]
	.syntax unified
@ 789 "synth.c" 1
	smlal	lr, r8, r6, r7
@ 0 "" 2
.LVL443:
	.loc 1 790 0
	.thumb
	.syntax unified
	ldr	r6, [r2, #32]
	ldr	r7, [r5, #316]
	.syntax unified
@ 790 "synth.c" 1
	smlal	lr, r8, r6, r7
@ 0 "" 2
.LVL444:
	.loc 1 793 0
	.thumb
	.syntax unified
	ldr	r6, [r3, #32]
	ldr	r7, [r4, #316]
	.syntax unified
@ 793 "synth.c" 1
	smlal	lr, r8, r6, r7
@ 0 "" 2
.LVL445:
	.loc 1 794 0
	.thumb
	.syntax unified
	ldr	r6, [r3, #36]
	ldr	r7, [r4, #324]
	.syntax unified
@ 794 "synth.c" 1
	smlal	lr, r8, r6, r7
@ 0 "" 2
.LVL446:
	.loc 1 795 0
	.thumb
	.syntax unified
	ldr	r6, [r3, #40]
	ldr	r7, [r4, #332]
	.syntax unified
@ 795 "synth.c" 1
	smlal	lr, r8, r6, r7
@ 0 "" 2
.LVL447:
	.loc 1 796 0
	.thumb
	.syntax unified
	ldr	r6, [r3, #44]
	ldr	r7, [r4, #340]
	.syntax unified
@ 796 "synth.c" 1
	smlal	lr, r8, r6, r7
@ 0 "" 2
.LVL448:
	.loc 1 797 0
	.thumb
	.syntax unified
	ldr	r6, [r3, #48]
	ldr	r7, [r4, #348]
	.syntax unified
@ 797 "synth.c" 1
	smlal	lr, r8, r6, r7
@ 0 "" 2
.LVL449:
	.loc 1 798 0
	.thumb
	.syntax unified
	ldr	r6, [r3, #52]
	ldr	r7, [r4, #356]
	.syntax unified
@ 798 "synth.c" 1
	smlal	lr, r8, r6, r7
@ 0 "" 2
.LVL450:
	.loc 1 799 0
	.thumb
	.syntax unified
	ldr	r6, [r3, #56]
	ldr	r7, [r4, #364]
	.syntax unified
@ 799 "synth.c" 1
	smlal	lr, r8, r6, r7
@ 0 "" 2
.LVL451:
	.loc 1 800 0
	.thumb
	.syntax unified
	ldr	r6, [r3, #60]
	ldr	r7, [r4, #372]
	.syntax unified
@ 800 "synth.c" 1
	smlal	lr, r8, r6, r7
@ 0 "" 2
.LVL452:
	.thumb
	.syntax unified
.LBB208:
	.loc 1 802 0
	.syntax unified
@ 802 "synth.c" 1
	movs	r6, lr, lsr #16
	adc	r6, r6, r8, lsl #16
@ 0 "" 2
.LVL453:
	.thumb
	.syntax unified
.LBE208:
	str	r6, [r9, #4]
.LVL454:
	b	.L23
.LVL455:
.L33:
	.loc 1 810 0 discriminator 2
	ldr	r0, [sp, #40]
	.loc 1 820 0 discriminator 2
	mov	r8, r10
	.loc 1 810 0 discriminator 2
	ldr	r1, [sp, #16]
	.loc 1 811 0 discriminator 2
	ldr	r2, [fp, #480]
.LVL456:
	.loc 1 810 0 discriminator 2
	mov	r3, r0
	adds	r1, r1, #128
	add	r3, r3, r1
.LVL457:
	.loc 1 811 0 discriminator 2
	ldr	r1, [r0, r1]
	.syntax unified
@ 811 "synth.c" 1
	smull	r0, r4, r2, r1
@ 0 "" 2
.LVL458:
	.loc 1 812 0 discriminator 2
	.thumb
	.syntax unified
	ldr	r1, [r3, #56]
	ldr	r2, [fp, #484]
	.syntax unified
@ 812 "synth.c" 1
	smlal	r0, r4, r2, r1
@ 0 "" 2
.LVL459:
	.loc 1 813 0 discriminator 2
	.thumb
	.syntax unified
	ldr	r1, [r3, #48]
	ldr	r2, [fp, #488]
	.syntax unified
@ 813 "synth.c" 1
	smlal	r0, r4, r2, r1
@ 0 "" 2
.LVL460:
	.loc 1 814 0 discriminator 2
	.thumb
	.syntax unified
	ldr	r1, [r3, #40]
	ldr	r2, [fp, #492]
	.syntax unified
@ 814 "synth.c" 1
	smlal	r0, r4, r2, r1
@ 0 "" 2
.LVL461:
	.loc 1 815 0 discriminator 2
	.thumb
	.syntax unified
	ldr	r1, [r3, #32]
	ldr	r2, [fp, #496]
	.syntax unified
@ 815 "synth.c" 1
	smlal	r0, r4, r2, r1
@ 0 "" 2
.LVL462:
	.loc 1 816 0 discriminator 2
	.thumb
	.syntax unified
	ldr	r1, [r3, #24]
	ldr	r2, [fp, #500]
	.syntax unified
@ 816 "synth.c" 1
	smlal	r0, r4, r2, r1
@ 0 "" 2
.LVL463:
	.loc 1 817 0 discriminator 2
	.thumb
	.syntax unified
	ldr	r2, [fp, #504]
	ldr	r1, [r3, #16]
	.loc 1 818 0 discriminator 2
	ldr	r3, [r3, #8]
.LVL464:
	.loc 1 817 0 discriminator 2
	.syntax unified
@ 817 "synth.c" 1
	smlal	r0, r4, r2, r1
@ 0 "" 2
.LVL465:
	.loc 1 818 0 discriminator 2
	.thumb
	.syntax unified
	ldr	r2, [fp, #508]
	.syntax unified
@ 818 "synth.c" 1
	smlal	r0, r4, r2, r3
@ 0 "" 2
.LVL466:
	.thumb
	.syntax unified
.LBB209:
	.loc 1 820 0 discriminator 2
	.syntax unified
@ 820 "synth.c" 1
	movs	r3, r0, lsr #16
	adc	r3, r3, r4, lsl #16
@ 0 "" 2
.LVL467:
	.thumb
	.syntax unified
.LBE209:
	negs	r3, r3
.LVL468:
	ldr	r2, [sp, #12]
	str	r3, [r8], #32
.LVL469:
	.loc 1 823 0 discriminator 2
	ldr	r3, [sp]
.LVL470:
	adds	r2, r2, #128
	str	r2, [sp, #12]
	adds	r3, r3, #1
	.loc 1 712 0 discriminator 2
	ldr	r2, [sp, #36]
	.loc 1 823 0 discriminator 2
	and	r3, r3, #15
	str	r3, [sp]
.LVL471:
	.loc 1 712 0 discriminator 2
	ldr	r3, [sp, #24]
.LVL472:
	adds	r3, r3, #1
	cmp	r2, r3
	str	r3, [sp, #24]
.LVL473:
	beq	.L21
.LVL474:
.L25:
	.loc 1 714 0
	ldr	r4, [sp]
	.loc 1 748 0
	add	r10, r8, #4
	.loc 1 714 0
	ldr	r7, [sp, #8]
	ldr	r3, [sp, #28]
	and	r5, r4, #1
	.loc 1 713 0
	ldr	r0, [sp, #12]
	lsrs	r1, r4, #1
	.loc 1 714 0
	adds	r3, r5, r3
	add	r6, r7, r3, lsl #9
	ldr	r3, [sp, #20]
	.loc 1 713 0
	mov	r2, r6
	.loc 1 714 0
	adds	r3, r5, r3
	.loc 1 713 0
	add	r3, r7, r3, lsl #9
	bl	dct32(PLT)
.LVL475:
	.loc 1 723 0
	ldr	r3, [sp, #20]
	.loc 1 722 0
	eor	r1, r5, #1
.LVL476:
	.loc 1 717 0
	str	r4, [sp]
.LVL477:
	subs	r4, r4, #1
.LVL478:
	and	r4, r4, #14
	.loc 1 728 0
	mov	r2, r7
	.loc 1 717 0
	orr	r4, r4, #1
.LVL479:
	.loc 1 723 0
	add	fp, r1, r3
	.loc 1 727 0
	lsls	r3, r4, #2
	.loc 1 728 0
	str	r7, [sp, #8]
	.loc 1 723 0
	add	fp, r7, fp, lsl #9
.LVL480:
	.loc 1 727 0
	mov	r0, r3
	ldr	r3, [sp, #4]
	str	r0, [sp, #16]
	adds	r0, r3, r0
.LVL481:
	.loc 1 728 0
	ldr	r3, [sp, #32]
	lsls	r3, r3, #2
	add	r1, r1, r3
.LVL482:
	.loc 1 739 0
	add	r5, r5, r3
.LVL483:
	.loc 1 728 0
	lsls	r1, r1, #9
	.loc 1 739 0
	lsls	r5, r5, #9
	.loc 1 728 0
	add	r2, r2, r1
.LVL484:
	ldr	r1, [r7, r1]
	ldr	r7, [sp, #4]
	ldr	r4, [r7, r4, lsl #2]
.LVL485:
	.syntax unified
@ 728 "synth.c" 1
	smull	r7, ip, r1, r4
@ 0 "" 2
.LVL486:
	.loc 1 729 0
	.thumb
	.syntax unified
	ldr	r1, [r2, #4]
	ldr	r4, [r0, #56]
	.syntax unified
@ 729 "synth.c" 1
	smlal	r7, ip, r1, r4
@ 0 "" 2
.LVL487:
	.loc 1 730 0
	.thumb
	.syntax unified
	ldr	r1, [r2, #8]
	ldr	r4, [r0, #48]
	.syntax unified
@ 730 "synth.c" 1
	smlal	r7, ip, r1, r4
@ 0 "" 2
.LVL488:
	.loc 1 731 0
	.thumb
	.syntax unified
	ldr	r1, [r2, #12]
	ldr	r4, [r0, #40]
	.syntax unified
@ 731 "synth.c" 1
	smlal	r7, ip, r1, r4
@ 0 "" 2
.LVL489:
	.loc 1 732 0
	.thumb
	.syntax unified
	ldr	r1, [r2, #16]
	ldr	r4, [r0, #32]
	.syntax unified
@ 732 "synth.c" 1
	smlal	r7, ip, r1, r4
@ 0 "" 2
.LVL490:
	.loc 1 733 0
	.thumb
	.syntax unified
	ldr	r1, [r2, #20]
	ldr	r4, [r0, #24]
	.syntax unified
@ 733 "synth.c" 1
	smlal	r7, ip, r1, r4
@ 0 "" 2
.LVL491:
	.loc 1 734 0
	.thumb
	.syntax unified
	ldr	r1, [r2, #24]
	ldr	r4, [r0, #16]
	.syntax unified
@ 734 "synth.c" 1
	smlal	r7, ip, r1, r4
@ 0 "" 2
.LVL492:
	.loc 1 735 0
	.thumb
	.syntax unified
	ldr	r1, [r2, #28]
	ldr	r2, [r0, #8]
.LVL493:
	.syntax unified
@ 735 "synth.c" 1
	smlal	r7, ip, r1, r2
@ 0 "" 2
.LVL494:
	.loc 1 716 0
	.thumb
	.syntax unified
	ldr	r1, [sp]
	.loc 1 739 0
	ldr	r2, [sp, #8]
	.loc 1 736 0
	.syntax unified
@ 736 "synth.c" 1
	rsbs	r7, r7, #0
	rsc	ip, ip, #0
@ 0 "" 2
.LVL495:
	.loc 1 716 0
	.thumb
	.syntax unified
	bic	lr, r1, #1
.LVL496:
	.loc 1 738 0
	ldr	r1, [sp, #4]
	.loc 1 739 0
	adds	r3, r2, r5
	ldr	r2, [r2, r5]
	ldr	r5, [sp, #4]
	.loc 1 738 0
	lsl	r4, lr, #2
	add	r1, r1, r4
.LVL497:
	.loc 1 739 0
	ldr	r5, [r5, lr, lsl #2]
	.loc 1 748 0
	mov	lr, r8
.LVL498:
	.loc 1 739 0
	.syntax unified
@ 739 "synth.c" 1
	smlal	r7, ip, r2, r5
@ 0 "" 2
.LVL499:
	.loc 1 740 0
	.thumb
	.syntax unified
	ldr	r2, [r3, #4]
	ldr	r5, [r1, #56]
	.syntax unified
@ 740 "synth.c" 1
	smlal	r7, ip, r2, r5
@ 0 "" 2
.LVL500:
	.loc 1 741 0
	.thumb
	.syntax unified
	ldr	r2, [r3, #8]
	ldr	r5, [r1, #48]
	.syntax unified
@ 741 "synth.c" 1
	smlal	r7, ip, r2, r5
@ 0 "" 2
.LVL501:
	.loc 1 742 0
	.thumb
	.syntax unified
	ldr	r2, [r3, #12]
	ldr	r5, [r1, #40]
	.syntax unified
@ 742 "synth.c" 1
	smlal	r7, ip, r2, r5
@ 0 "" 2
.LVL502:
	.loc 1 743 0
	.thumb
	.syntax unified
	ldr	r2, [r3, #16]
	ldr	r5, [r1, #32]
	.syntax unified
@ 743 "synth.c" 1
	smlal	r7, ip, r2, r5
@ 0 "" 2
.LVL503:
	.loc 1 744 0
	.thumb
	.syntax unified
	ldr	r2, [r3, #20]
	ldr	r5, [r1, #24]
	.syntax unified
@ 744 "synth.c" 1
	smlal	r7, ip, r2, r5
@ 0 "" 2
.LVL504:
	.loc 1 745 0
	.thumb
	.syntax unified
	ldr	r2, [r3, #24]
	ldr	r5, [r1, #16]
	.syntax unified
@ 745 "synth.c" 1
	smlal	r7, ip, r2, r5
@ 0 "" 2
.LVL505:
	.loc 1 746 0
	.thumb
	.syntax unified
	ldr	r2, [r3, #28]
	ldr	r3, [r1, #8]
	.syntax unified
@ 746 "synth.c" 1
	smlal	r7, ip, r2, r3
@ 0 "" 2
.LVL506:
	.thumb
	.syntax unified
.LBB210:
	.loc 1 748 0
	.syntax unified
@ 748 "synth.c" 1
	movs	r3, r7, lsr #16
	adc	r3, r3, ip, lsl #16
@ 0 "" 2
.LVL507:
	.thumb
	.syntax unified
	ldr	r7, [sp, #16]
.LVL508:
	mov	r2, fp
.LBE210:
	str	r3, [lr], #60
.LVL509:
	.loc 1 753 0
	add	r3, r6, #32
.LVL510:
	ldr	r6, [sp, #4]
.LVL511:
	.loc 1 752 0
	mov	ip, #1
.LVL512:
	mov	r9, lr
	subs	r5, r6, r7
	subs	r4, r6, r4
	b	.L22
.LVL513:
.L21:
	ldr	r2, [sp, #44]
	.loc 1 706 0 discriminator 2
	ldr	r3, [sp, #32]
	add	r2, r2, #4608
	str	r2, [sp, #44]
	adds	r3, r3, #1
	ldr	r2, [sp, #48]
	str	r3, [sp, #32]
.LVL514:
	add	r2, r2, #4608
	str	r2, [sp, #48]
	ldr	r2, [sp, #28]
	adds	r2, r2, #4
	str	r2, [sp, #28]
	ldr	r2, [sp, #52]
	cmp	r2, r3
	beq	.L34
.LVL515:
.L26:
	.loc 1 709 0
	ldr	r3, [sp, #8]
	.loc 1 710 0
	ldr	r8, [sp, #44]
	.loc 1 709 0
	add	r3, r3, #4096
	ldr	r3, [r3]
	str	r3, [sp]
.LVL516:
	.loc 1 712 0
	ldr	r3, [sp, #36]
.LVL517:
	cmp	r3, #0
	beq	.L21
	ldr	r3, [sp, #48]
	str	r3, [sp, #12]
	movs	r3, #0
	str	r3, [sp, #24]
	ldr	r3, [sp, #28]
	adds	r3, r3, #2
	str	r3, [sp, #20]
	b	.L25
.LVL518:
.L34:
	.loc 1 826 0
	add	sp, sp, #60
	.cfi_def_cfa_offset 36
.LVL519:
	@ sp needed
	pop	{r4, r5, r6, r7, r8, r9, r10, fp, pc}
.LVL520:
.L30:
	.cfi_def_cfa_offset 0
	.cfi_restore 4
	.cfi_restore 5
	.cfi_restore 6
	.cfi_restore 7
	.cfi_restore 8
	.cfi_restore 9
	.cfi_restore 10
	.cfi_restore 11
	.cfi_restore 14
	bx	lr
.L36:
	.align	2
.L35:
	.word	.LANCHOR0-(.LPIC15+4)
	.word	.LANCHOR0-(.LPIC21+4)
	.cfi_endproc
.LFE4:
	.size	synth_half, .-synth_half
	.align	1
	.global	mad_synth_mute
	.syntax unified
	.thumb
	.thumb_func
	.fpu vfpv3-d16
	.type	mad_synth_mute, %function
mad_synth_mute:
.LFB1:
	.loc 1 52 0
	.cfi_startproc
	@ args = 0, pretend = 0, frame = 0
	@ frame_needed = 0, uses_anonymous_args = 0
	@ link register save eliminated.
.LVL521:
	push	{r4}
	.cfi_def_cfa_offset 4
	.cfi_offset 4, -4
	add	r4, r0, #508
	add	r0, r0, #4576
.LVL522:
	.loc 1 59 0
	movs	r2, #0
	adds	r0, r0, #28
.LVL523:
	b	.L38
.LVL524:
.L45:
	.loc 1 56 0 discriminator 2
	cmp	r1, r4
	beq	.L40
.L42:
.LVL525:
	add	r1, r3, #32
.LVL526:
.L39:
	.loc 1 59 0 discriminator 3
	str	r2, [r3, #1540]
	str	r2, [r3, #1028]
	.loc 1 58 0 discriminator 3
	str	r2, [r3, #516]
	str	r2, [r3, #4]!
	.loc 1 57 0 discriminator 3
	cmp	r3, r1
	bne	.L39
	b	.L45
.L40:
	add	r4, r1, #2048
	.loc 1 55 0 discriminator 2
	cmp	r4, r0
	beq	.L37
.L38:
.LVL527:
	sub	r3, r4, #512
	b	.L42
.LVL528:
.L37:
	.loc 1 63 0
	ldr	r4, [sp], #4
	.cfi_restore 4
	.cfi_def_cfa_offset 0
	bx	lr
	.cfi_endproc
.LFE1:
	.size	mad_synth_mute, .-mad_synth_mute
	.align	1
	.global	mad_synth_init
	.syntax unified
	.thumb
	.thumb_func
	.fpu vfpv3-d16
	.type	mad_synth_init, %function
mad_synth_init:
.LFB0:
	.loc 1 37 0
	.cfi_startproc
	@ args = 0, pretend = 0, frame = 0
	@ frame_needed = 0, uses_anonymous_args = 0
.LVL529:
	push	{r4, lr}
	.cfi_def_cfa_offset 8
	.cfi_offset 4, -8
	.cfi_offset 14, -4
	.loc 1 37 0
	mov	r4, r0
	.loc 1 38 0
	bl	mad_synth_mute(PLT)
.LVL530:
	.loc 1 40 0
	movs	r3, #0
	add	r2, r4, #4096
	str	r3, [r2]
	.loc 1 42 0
	movw	r2, #4100
	str	r3, [r4, r2]
	.loc 1 43 0
	movw	r2, #4104
	strh	r3, [r4, r2]	@ movhi
	.loc 1 44 0
	movw	r2, #4106
	strh	r3, [r4, r2]	@ movhi
	pop	{r4, pc}
	.cfi_endproc
.LFE0:
	.size	mad_synth_init, .-mad_synth_init
	.align	1
	.global	mad_synth_frame
	.syntax unified
	.thumb
	.thumb_func
	.fpu vfpv3-d16
	.type	mad_synth_frame, %function
mad_synth_frame:
.LFB5:
	.loc 1 833 0
	.cfi_startproc
	@ args = 0, pretend = 0, frame = 0
	@ frame_needed = 0, uses_anonymous_args = 0
.LVL531:
	push	{r3, r4, r5, r6, r7, lr}
	.cfi_def_cfa_offset 24
	.cfi_offset 3, -24
	.cfi_offset 4, -20
	.cfi_offset 5, -16
	.cfi_offset 6, -12
	.cfi_offset 7, -8
	.cfi_offset 14, -4
	.loc 1 833 0
	mov	r4, r0
	.loc 1 838 0
	ldr	r3, [r1, #4]
	cmp	r3, #0
	.loc 1 839 0
	ldr	r3, [r1]
	.loc 1 838 0
	ite	ne
	movne	r2, #2
	moveq	r2, #1
.LVL532:
	.loc 1 839 0
	cmp	r3, #1
	it	eq
	moveq	r5, #12
	beq	.L50
	.loc 1 839 0 is_stmt 0 discriminator 1
	cmp	r3, #3
	it	ne
	movne	r5, #36
	beq	.L58
.L50:
.LVL533:
	.loc 1 841 0 is_stmt 1 discriminator 10
	ldr	r0, [r1, #20]
.LVL534:
	.loc 1 842 0 discriminator 10
	movw	r3, #4104
	.loc 1 841 0 discriminator 10
	movw	ip, #4100
	.loc 1 843 0 discriminator 10
	movw	r6, #4106
	.loc 1 841 0 discriminator 10
	str	r0, [r4, ip]
	.loc 1 842 0 discriminator 10
	strh	r2, [r4, r3]	@ movhi
	.loc 1 843 0 discriminator 10
	lsls	r3, r5, #5
	strh	r3, [r4, r6]	@ movhi
.LVL535:
	.loc 1 847 0 discriminator 10
	ldr	r7, [r1, #44]
	tst	r7, #2
	beq	.L56
	.loc 1 848 0
	lsrs	r0, r0, #1
	.loc 1 849 0
	lsrs	r3, r3, #1
	.loc 1 848 0
	str	r0, [r4, ip]
	.loc 1 849 0
	strh	r3, [r4, r6]	@ movhi
.LVL536:
	.loc 1 851 0
	ldr	r6, .L59
.LPIC23:
	add	r6, pc
.LVL537:
.L51:
	.loc 1 854 0
	mov	r3, r5
	mov	r0, r4
	.loc 1 856 0
	add	r4, r4, #4096
.LVL538:
	.loc 1 854 0
	blx	r6
.LVL539:
	.loc 1 856 0
	ldr	r3, [r4]
	add	r5, r5, r3
.LVL540:
	and	r5, r5, #15
	str	r5, [r4]
	pop	{r3, r4, r5, r6, r7, pc}
.LVL541:
.L58:
	.loc 1 839 0 discriminator 3
	ldr	r3, [r1, #28]
	and	r3, r3, #4096
	cmp	r3, #0
	ite	eq
	moveq	r5, #36
	movne	r5, #18
	b	.L50
.LVL542:
.L56:
	.loc 1 845 0
	ldr	r6, .L59+4
.LPIC22:
	add	r6, pc
	b	.L51
.L60:
	.align	2
.L59:
	.word	synth_half-(.LPIC23+4)
	.word	synth_full-(.LPIC22+4)
	.cfi_endproc
.LFE5:
	.size	mad_synth_frame, .-mad_synth_frame
	.section	.rodata
	.align	2
	.set	.LANCHOR0,. + 0
	.type	D, %object
	.size	D, 2176
D:
	.word	0
	.word	-29
	.word	213
	.word	-459
	.word	2037
	.word	-5153
	.word	6574
	.word	-37489
	.word	75038
	.word	37489
	.word	6574
	.word	5153
	.word	2037
	.word	459
	.word	213
	.word	29
	.word	0
	.word	-29
	.word	213
	.word	-459
	.word	2037
	.word	-5153
	.word	6574
	.word	-37489
	.word	75038
	.word	37489
	.word	6574
	.word	5153
	.word	2037
	.word	459
	.word	213
	.word	29
	.word	-1
	.word	-31
	.word	218
	.word	-519
	.word	2000
	.word	-5517
	.word	5959
	.word	-39336
	.word	74992
	.word	35640
	.word	7134
	.word	4788
	.word	2063
	.word	401
	.word	208
	.word	26
	.word	-1
	.word	-31
	.word	218
	.word	-519
	.word	2000
	.word	-5517
	.word	5959
	.word	-39336
	.word	74992
	.word	35640
	.word	7134
	.word	4788
	.word	2063
	.word	401
	.word	208
	.word	26
	.word	-1
	.word	-35
	.word	222
	.word	-581
	.word	1952
	.word	-5879
	.word	5288
	.word	-41176
	.word	74856
	.word	33791
	.word	7640
	.word	4425
	.word	2080
	.word	347
	.word	202
	.word	24
	.word	-1
	.word	-35
	.word	222
	.word	-581
	.word	1952
	.word	-5879
	.word	5288
	.word	-41176
	.word	74856
	.word	33791
	.word	7640
	.word	4425
	.word	2080
	.word	347
	.word	202
	.word	24
	.word	-1
	.word	-38
	.word	225
	.word	-645
	.word	1893
	.word	-6237
	.word	4561
	.word	-43006
	.word	74630
	.word	31947
	.word	8092
	.word	4063
	.word	2087
	.word	294
	.word	196
	.word	21
	.word	-1
	.word	-38
	.word	225
	.word	-645
	.word	1893
	.word	-6237
	.word	4561
	.word	-43006
	.word	74630
	.word	31947
	.word	8092
	.word	4063
	.word	2087
	.word	294
	.word	196
	.word	21
	.word	-1
	.word	-41
	.word	227
	.word	-711
	.word	1822
	.word	-6589
	.word	3776
	.word	-44821
	.word	74313
	.word	30112
	.word	8492
	.word	3705
	.word	2085
	.word	244
	.word	190
	.word	19
	.word	-1
	.word	-41
	.word	227
	.word	-711
	.word	1822
	.word	-6589
	.word	3776
	.word	-44821
	.word	74313
	.word	30112
	.word	8492
	.word	3705
	.word	2085
	.word	244
	.word	190
	.word	19
	.word	-1
	.word	-45
	.word	228
	.word	-779
	.word	1739
	.word	-6935
	.word	2935
	.word	-46617
	.word	73908
	.word	28289
	.word	8840
	.word	3351
	.word	2075
	.word	197
	.word	183
	.word	17
	.word	-1
	.word	-45
	.word	228
	.word	-779
	.word	1739
	.word	-6935
	.word	2935
	.word	-46617
	.word	73908
	.word	28289
	.word	8840
	.word	3351
	.word	2075
	.word	197
	.word	183
	.word	17
	.word	-1
	.word	-49
	.word	228
	.word	-848
	.word	1644
	.word	-7271
	.word	2037
	.word	-48390
	.word	73415
	.word	26482
	.word	9139
	.word	3004
	.word	2057
	.word	153
	.word	176
	.word	16
	.word	-1
	.word	-49
	.word	228
	.word	-848
	.word	1644
	.word	-7271
	.word	2037
	.word	-48390
	.word	73415
	.word	26482
	.word	9139
	.word	3004
	.word	2057
	.word	153
	.word	176
	.word	16
	.word	-2
	.word	-53
	.word	227
	.word	-919
	.word	1535
	.word	-7597
	.word	1082
	.word	-50137
	.word	72835
	.word	24694
	.word	9389
	.word	2663
	.word	2032
	.word	111
	.word	169
	.word	14
	.word	-2
	.word	-53
	.word	227
	.word	-919
	.word	1535
	.word	-7597
	.word	1082
	.word	-50137
	.word	72835
	.word	24694
	.word	9389
	.word	2663
	.word	2032
	.word	111
	.word	169
	.word	14
	.word	-2
	.word	-58
	.word	224
	.word	-991
	.word	1414
	.word	-7910
	.word	70
	.word	-51853
	.word	72169
	.word	22929
	.word	9592
	.word	2330
	.word	2001
	.word	72
	.word	161
	.word	13
	.word	-2
	.word	-58
	.word	224
	.word	-991
	.word	1414
	.word	-7910
	.word	70
	.word	-51853
	.word	72169
	.word	22929
	.word	9592
	.word	2330
	.word	2001
	.word	72
	.word	161
	.word	13
	.word	-2
	.word	-63
	.word	221
	.word	-1064
	.word	1280
	.word	-8209
	.word	-998
	.word	-53534
	.word	71420
	.word	21189
	.word	9750
	.word	2006
	.word	1962
	.word	36
	.word	154
	.word	11
	.word	-2
	.word	-63
	.word	221
	.word	-1064
	.word	1280
	.word	-8209
	.word	-998
	.word	-53534
	.word	71420
	.word	21189
	.word	9750
	.word	2006
	.word	1962
	.word	36
	.word	154
	.word	11
	.word	-2
	.word	-68
	.word	215
	.word	-1137
	.word	1131
	.word	-8491
	.word	-2122
	.word	-55178
	.word	70590
	.word	19478
	.word	9863
	.word	1692
	.word	1919
	.word	2
	.word	147
	.word	10
	.word	-2
	.word	-68
	.word	215
	.word	-1137
	.word	1131
	.word	-8491
	.word	-2122
	.word	-55178
	.word	70590
	.word	19478
	.word	9863
	.word	1692
	.word	1919
	.word	2
	.word	147
	.word	10
	.word	-3
	.word	-73
	.word	208
	.word	-1210
	.word	970
	.word	-8755
	.word	-3300
	.word	-56778
	.word	69679
	.word	17799
	.word	9935
	.word	1388
	.word	1870
	.word	-29
	.word	139
	.word	9
	.word	-3
	.word	-73
	.word	208
	.word	-1210
	.word	970
	.word	-8755
	.word	-3300
	.word	-56778
	.word	69679
	.word	17799
	.word	9935
	.word	1388
	.word	1870
	.word	-29
	.word	139
	.word	9
	.word	-3
	.word	-79
	.word	200
	.word	-1283
	.word	794
	.word	-8998
	.word	-4533
	.word	-58333
	.word	68692
	.word	16155
	.word	9966
	.word	1095
	.word	1817
	.word	-57
	.word	132
	.word	8
	.word	-3
	.word	-79
	.word	200
	.word	-1283
	.word	794
	.word	-8998
	.word	-4533
	.word	-58333
	.word	68692
	.word	16155
	.word	9966
	.word	1095
	.word	1817
	.word	-57
	.word	132
	.word	8
	.word	-4
	.word	-85
	.word	189
	.word	-1356
	.word	605
	.word	-9219
	.word	-5818
	.word	-59838
	.word	67629
	.word	14548
	.word	9959
	.word	814
	.word	1759
	.word	-83
	.word	125
	.word	7
	.word	-4
	.word	-85
	.word	189
	.word	-1356
	.word	605
	.word	-9219
	.word	-5818
	.word	-59838
	.word	67629
	.word	14548
	.word	9959
	.word	814
	.word	1759
	.word	-83
	.word	125
	.word	7
	.word	-4
	.word	-91
	.word	177
	.word	-1428
	.word	402
	.word	-9416
	.word	-7154
	.word	-61289
	.word	66494
	.word	12980
	.word	9916
	.word	545
	.word	1698
	.word	-106
	.word	117
	.word	7
	.word	-4
	.word	-91
	.word	177
	.word	-1428
	.word	402
	.word	-9416
	.word	-7154
	.word	-61289
	.word	66494
	.word	12980
	.word	9916
	.word	545
	.word	1698
	.word	-106
	.word	117
	.word	7
	.word	-5
	.word	-97
	.word	163
	.word	-1498
	.word	185
	.word	-9585
	.word	-8540
	.word	-62684
	.word	65290
	.word	11455
	.word	9838
	.word	288
	.word	1634
	.word	-127
	.word	111
	.word	6
	.word	-5
	.word	-97
	.word	163
	.word	-1498
	.word	185
	.word	-9585
	.word	-8540
	.word	-62684
	.word	65290
	.word	11455
	.word	9838
	.word	288
	.word	1634
	.word	-127
	.word	111
	.word	6
	.word	-5
	.word	-104
	.word	146
	.word	-1567
	.word	-45
	.word	-9727
	.word	-9975
	.word	-64019
	.word	64019
	.word	9975
	.word	9727
	.word	45
	.word	1567
	.word	-146
	.word	104
	.word	5
	.word	-5
	.word	-104
	.word	146
	.word	-1567
	.word	-45
	.word	-9727
	.word	-9975
	.word	-64019
	.word	64019
	.word	9975
	.word	9727
	.word	45
	.word	1567
	.word	-146
	.word	104
	.word	5
	.text
.Letext0:
	.file 2 "fixed.h"
	.file 3 "timer.h"
	.file 4 "frame.h"
	.file 5 "stream.h"
	.file 6 "synth.h"
	.section	.note.GNU-stack,"",%progbits
